
Hector_experiment.elf:     file format elf32-littlearm

Sections:
Idx Name          Size      VMA       LMA       File off  Algn
  0 .isr_vector   00000198  08000000  08000000  00010000  2**0
                  CONTENTS, ALLOC, LOAD, READONLY, DATA
  1 .text         00003794  08000198  08000198  00010198  2**2
                  CONTENTS, ALLOC, LOAD, READONLY, CODE
  2 .rodata       000001e8  0800392c  0800392c  0001392c  2**0
                  CONTENTS, ALLOC, LOAD, READONLY, DATA
  3 .ARM.extab    00000000  08003b14  08003b14  00020018  2**0
                  CONTENTS
  4 .ARM          00000008  08003b14  08003b14  00013b14  2**2
                  CONTENTS, ALLOC, LOAD, READONLY, DATA
  5 .preinit_array 00000000  08003b1c  08003b1c  00020018  2**0
                  CONTENTS, ALLOC, LOAD, DATA
  6 .init_array   00000004  08003b1c  08003b1c  00013b1c  2**2
                  CONTENTS, ALLOC, LOAD, DATA
  7 .fini_array   00000004  08003b20  08003b20  00013b20  2**2
                  CONTENTS, ALLOC, LOAD, DATA
  8 .data         00000018  20000000  08003b24  00020000  2**2
                  CONTENTS, ALLOC, LOAD, DATA
  9 .bss          000001fc  20000018  08003b3c  00020018  2**2
                  ALLOC
 10 ._user_heap_stack 00000604  20000214  08003b3c  00020214  2**0
                  ALLOC
 11 .ARM.attributes 00000030  00000000  00000000  00020018  2**0
                  CONTENTS, READONLY
 12 .comment      0000007b  00000000  00000000  00020048  2**0
                  CONTENTS, READONLY
 13 .debug_frame  000000d4  00000000  00000000  000200c4  2**2
                  CONTENTS, READONLY, DEBUGGING

Disassembly of section .text:

08000198 <__do_global_dtors_aux>:
 8000198:	b510      	push	{r4, lr}
 800019a:	4c05      	ldr	r4, [pc, #20]	; (80001b0 <__do_global_dtors_aux+0x18>)
 800019c:	7823      	ldrb	r3, [r4, #0]
 800019e:	b933      	cbnz	r3, 80001ae <__do_global_dtors_aux+0x16>
 80001a0:	4b04      	ldr	r3, [pc, #16]	; (80001b4 <__do_global_dtors_aux+0x1c>)
 80001a2:	b113      	cbz	r3, 80001aa <__do_global_dtors_aux+0x12>
 80001a4:	4804      	ldr	r0, [pc, #16]	; (80001b8 <__do_global_dtors_aux+0x20>)
 80001a6:	f3af 8000 	nop.w
 80001aa:	2301      	movs	r3, #1
 80001ac:	7023      	strb	r3, [r4, #0]
 80001ae:	bd10      	pop	{r4, pc}
 80001b0:	20000018 	.word	0x20000018
 80001b4:	00000000 	.word	0x00000000
 80001b8:	08003914 	.word	0x08003914

080001bc <frame_dummy>:
 80001bc:	b508      	push	{r3, lr}
 80001be:	4b03      	ldr	r3, [pc, #12]	; (80001cc <frame_dummy+0x10>)
 80001c0:	b11b      	cbz	r3, 80001ca <frame_dummy+0xe>
 80001c2:	4903      	ldr	r1, [pc, #12]	; (80001d0 <frame_dummy+0x14>)
 80001c4:	4803      	ldr	r0, [pc, #12]	; (80001d4 <frame_dummy+0x18>)
 80001c6:	f3af 8000 	nop.w
 80001ca:	bd08      	pop	{r3, pc}
 80001cc:	00000000 	.word	0x00000000
 80001d0:	2000001c 	.word	0x2000001c
 80001d4:	08003914 	.word	0x08003914

080001d8 <__aeabi_uldivmod>:
 80001d8:	b953      	cbnz	r3, 80001f0 <__aeabi_uldivmod+0x18>
 80001da:	b94a      	cbnz	r2, 80001f0 <__aeabi_uldivmod+0x18>
 80001dc:	2900      	cmp	r1, #0
 80001de:	bf08      	it	eq
 80001e0:	2800      	cmpeq	r0, #0
 80001e2:	bf1c      	itt	ne
 80001e4:	f04f 31ff 	movne.w	r1, #4294967295	; 0xffffffff
 80001e8:	f04f 30ff 	movne.w	r0, #4294967295	; 0xffffffff
 80001ec:	f000 b972 	b.w	80004d4 <__aeabi_idiv0>
 80001f0:	f1ad 0c08 	sub.w	ip, sp, #8
 80001f4:	e96d ce04 	strd	ip, lr, [sp, #-16]!
 80001f8:	f000 f806 	bl	8000208 <__udivmoddi4>
 80001fc:	f8dd e004 	ldr.w	lr, [sp, #4]
 8000200:	e9dd 2302 	ldrd	r2, r3, [sp, #8]
 8000204:	b004      	add	sp, #16
 8000206:	4770      	bx	lr

08000208 <__udivmoddi4>:
 8000208:	e92d 47f0 	stmdb	sp!, {r4, r5, r6, r7, r8, r9, sl, lr}
 800020c:	9e08      	ldr	r6, [sp, #32]
 800020e:	4604      	mov	r4, r0
 8000210:	4688      	mov	r8, r1
 8000212:	2b00      	cmp	r3, #0
 8000214:	d14b      	bne.n	80002ae <__udivmoddi4+0xa6>
 8000216:	428a      	cmp	r2, r1
 8000218:	4615      	mov	r5, r2
 800021a:	d967      	bls.n	80002ec <__udivmoddi4+0xe4>
 800021c:	fab2 f282 	clz	r2, r2
 8000220:	b14a      	cbz	r2, 8000236 <__udivmoddi4+0x2e>
 8000222:	f1c2 0720 	rsb	r7, r2, #32
 8000226:	fa01 f302 	lsl.w	r3, r1, r2
 800022a:	fa20 f707 	lsr.w	r7, r0, r7
 800022e:	4095      	lsls	r5, r2
 8000230:	ea47 0803 	orr.w	r8, r7, r3
 8000234:	4094      	lsls	r4, r2
 8000236:	ea4f 4e15 	mov.w	lr, r5, lsr #16
 800023a:	0c23      	lsrs	r3, r4, #16
 800023c:	fbb8 f7fe 	udiv	r7, r8, lr
 8000240:	fa1f fc85 	uxth.w	ip, r5
 8000244:	fb0e 8817 	mls	r8, lr, r7, r8
 8000248:	ea43 4308 	orr.w	r3, r3, r8, lsl #16
 800024c:	fb07 f10c 	mul.w	r1, r7, ip
 8000250:	4299      	cmp	r1, r3
 8000252:	d909      	bls.n	8000268 <__udivmoddi4+0x60>
 8000254:	18eb      	adds	r3, r5, r3
 8000256:	f107 30ff 	add.w	r0, r7, #4294967295	; 0xffffffff
 800025a:	f080 811b 	bcs.w	8000494 <__udivmoddi4+0x28c>
 800025e:	4299      	cmp	r1, r3
 8000260:	f240 8118 	bls.w	8000494 <__udivmoddi4+0x28c>
 8000264:	3f02      	subs	r7, #2
 8000266:	442b      	add	r3, r5
 8000268:	1a5b      	subs	r3, r3, r1
 800026a:	b2a4      	uxth	r4, r4
 800026c:	fbb3 f0fe 	udiv	r0, r3, lr
 8000270:	fb0e 3310 	mls	r3, lr, r0, r3
 8000274:	ea44 4403 	orr.w	r4, r4, r3, lsl #16
 8000278:	fb00 fc0c 	mul.w	ip, r0, ip
 800027c:	45a4      	cmp	ip, r4
 800027e:	d909      	bls.n	8000294 <__udivmoddi4+0x8c>
 8000280:	192c      	adds	r4, r5, r4
 8000282:	f100 33ff 	add.w	r3, r0, #4294967295	; 0xffffffff
 8000286:	f080 8107 	bcs.w	8000498 <__udivmoddi4+0x290>
 800028a:	45a4      	cmp	ip, r4
 800028c:	f240 8104 	bls.w	8000498 <__udivmoddi4+0x290>
 8000290:	3802      	subs	r0, #2
 8000292:	442c      	add	r4, r5
 8000294:	ea40 4007 	orr.w	r0, r0, r7, lsl #16
 8000298:	eba4 040c 	sub.w	r4, r4, ip
 800029c:	2700      	movs	r7, #0
 800029e:	b11e      	cbz	r6, 80002a8 <__udivmoddi4+0xa0>
 80002a0:	40d4      	lsrs	r4, r2
 80002a2:	2300      	movs	r3, #0
 80002a4:	e9c6 4300 	strd	r4, r3, [r6]
 80002a8:	4639      	mov	r1, r7
 80002aa:	e8bd 87f0 	ldmia.w	sp!, {r4, r5, r6, r7, r8, r9, sl, pc}
 80002ae:	428b      	cmp	r3, r1
 80002b0:	d909      	bls.n	80002c6 <__udivmoddi4+0xbe>
 80002b2:	2e00      	cmp	r6, #0
 80002b4:	f000 80eb 	beq.w	800048e <__udivmoddi4+0x286>
 80002b8:	2700      	movs	r7, #0
 80002ba:	e9c6 0100 	strd	r0, r1, [r6]
 80002be:	4638      	mov	r0, r7
 80002c0:	4639      	mov	r1, r7
 80002c2:	e8bd 87f0 	ldmia.w	sp!, {r4, r5, r6, r7, r8, r9, sl, pc}
 80002c6:	fab3 f783 	clz	r7, r3
 80002ca:	2f00      	cmp	r7, #0
 80002cc:	d147      	bne.n	800035e <__udivmoddi4+0x156>
 80002ce:	428b      	cmp	r3, r1
 80002d0:	d302      	bcc.n	80002d8 <__udivmoddi4+0xd0>
 80002d2:	4282      	cmp	r2, r0
 80002d4:	f200 80fa 	bhi.w	80004cc <__udivmoddi4+0x2c4>
 80002d8:	1a84      	subs	r4, r0, r2
 80002da:	eb61 0303 	sbc.w	r3, r1, r3
 80002de:	2001      	movs	r0, #1
 80002e0:	4698      	mov	r8, r3
 80002e2:	2e00      	cmp	r6, #0
 80002e4:	d0e0      	beq.n	80002a8 <__udivmoddi4+0xa0>
 80002e6:	e9c6 4800 	strd	r4, r8, [r6]
 80002ea:	e7dd      	b.n	80002a8 <__udivmoddi4+0xa0>
 80002ec:	b902      	cbnz	r2, 80002f0 <__udivmoddi4+0xe8>
 80002ee:	deff      	udf	#255	; 0xff
 80002f0:	fab2 f282 	clz	r2, r2
 80002f4:	2a00      	cmp	r2, #0
 80002f6:	f040 808f 	bne.w	8000418 <__udivmoddi4+0x210>
 80002fa:	1b49      	subs	r1, r1, r5
 80002fc:	ea4f 4e15 	mov.w	lr, r5, lsr #16
 8000300:	fa1f f885 	uxth.w	r8, r5
 8000304:	2701      	movs	r7, #1
 8000306:	fbb1 fcfe 	udiv	ip, r1, lr
 800030a:	0c23      	lsrs	r3, r4, #16
 800030c:	fb0e 111c 	mls	r1, lr, ip, r1
 8000310:	ea43 4301 	orr.w	r3, r3, r1, lsl #16
 8000314:	fb08 f10c 	mul.w	r1, r8, ip
 8000318:	4299      	cmp	r1, r3
 800031a:	d907      	bls.n	800032c <__udivmoddi4+0x124>
 800031c:	18eb      	adds	r3, r5, r3
 800031e:	f10c 30ff 	add.w	r0, ip, #4294967295	; 0xffffffff
 8000322:	d202      	bcs.n	800032a <__udivmoddi4+0x122>
 8000324:	4299      	cmp	r1, r3
 8000326:	f200 80cd 	bhi.w	80004c4 <__udivmoddi4+0x2bc>
 800032a:	4684      	mov	ip, r0
 800032c:	1a59      	subs	r1, r3, r1
 800032e:	b2a3      	uxth	r3, r4
 8000330:	fbb1 f0fe 	udiv	r0, r1, lr
 8000334:	fb0e 1410 	mls	r4, lr, r0, r1
 8000338:	ea43 4404 	orr.w	r4, r3, r4, lsl #16
 800033c:	fb08 f800 	mul.w	r8, r8, r0
 8000340:	45a0      	cmp	r8, r4
 8000342:	d907      	bls.n	8000354 <__udivmoddi4+0x14c>
 8000344:	192c      	adds	r4, r5, r4
 8000346:	f100 33ff 	add.w	r3, r0, #4294967295	; 0xffffffff
 800034a:	d202      	bcs.n	8000352 <__udivmoddi4+0x14a>
 800034c:	45a0      	cmp	r8, r4
 800034e:	f200 80b6 	bhi.w	80004be <__udivmoddi4+0x2b6>
 8000352:	4618      	mov	r0, r3
 8000354:	eba4 0408 	sub.w	r4, r4, r8
 8000358:	ea40 400c 	orr.w	r0, r0, ip, lsl #16
 800035c:	e79f      	b.n	800029e <__udivmoddi4+0x96>
 800035e:	f1c7 0c20 	rsb	ip, r7, #32
 8000362:	40bb      	lsls	r3, r7
 8000364:	fa22 fe0c 	lsr.w	lr, r2, ip
 8000368:	ea4e 0e03 	orr.w	lr, lr, r3
 800036c:	fa01 f407 	lsl.w	r4, r1, r7
 8000370:	fa20 f50c 	lsr.w	r5, r0, ip
 8000374:	fa21 f30c 	lsr.w	r3, r1, ip
 8000378:	ea4f 481e 	mov.w	r8, lr, lsr #16
 800037c:	4325      	orrs	r5, r4
 800037e:	fbb3 f9f8 	udiv	r9, r3, r8
 8000382:	0c2c      	lsrs	r4, r5, #16
 8000384:	fb08 3319 	mls	r3, r8, r9, r3
 8000388:	fa1f fa8e 	uxth.w	sl, lr
 800038c:	ea44 4303 	orr.w	r3, r4, r3, lsl #16
 8000390:	fb09 f40a 	mul.w	r4, r9, sl
 8000394:	429c      	cmp	r4, r3
 8000396:	fa02 f207 	lsl.w	r2, r2, r7
 800039a:	fa00 f107 	lsl.w	r1, r0, r7
 800039e:	d90b      	bls.n	80003b8 <__udivmoddi4+0x1b0>
 80003a0:	eb1e 0303 	adds.w	r3, lr, r3
 80003a4:	f109 30ff 	add.w	r0, r9, #4294967295	; 0xffffffff
 80003a8:	f080 8087 	bcs.w	80004ba <__udivmoddi4+0x2b2>
 80003ac:	429c      	cmp	r4, r3
 80003ae:	f240 8084 	bls.w	80004ba <__udivmoddi4+0x2b2>
 80003b2:	f1a9 0902 	sub.w	r9, r9, #2
 80003b6:	4473      	add	r3, lr
 80003b8:	1b1b      	subs	r3, r3, r4
 80003ba:	b2ad      	uxth	r5, r5
 80003bc:	fbb3 f0f8 	udiv	r0, r3, r8
 80003c0:	fb08 3310 	mls	r3, r8, r0, r3
 80003c4:	ea45 4403 	orr.w	r4, r5, r3, lsl #16
 80003c8:	fb00 fa0a 	mul.w	sl, r0, sl
 80003cc:	45a2      	cmp	sl, r4
 80003ce:	d908      	bls.n	80003e2 <__udivmoddi4+0x1da>
 80003d0:	eb1e 0404 	adds.w	r4, lr, r4
 80003d4:	f100 33ff 	add.w	r3, r0, #4294967295	; 0xffffffff
 80003d8:	d26b      	bcs.n	80004b2 <__udivmoddi4+0x2aa>
 80003da:	45a2      	cmp	sl, r4
 80003dc:	d969      	bls.n	80004b2 <__udivmoddi4+0x2aa>
 80003de:	3802      	subs	r0, #2
 80003e0:	4474      	add	r4, lr
 80003e2:	ea40 4009 	orr.w	r0, r0, r9, lsl #16
 80003e6:	fba0 8902 	umull	r8, r9, r0, r2
 80003ea:	eba4 040a 	sub.w	r4, r4, sl
 80003ee:	454c      	cmp	r4, r9
 80003f0:	46c2      	mov	sl, r8
 80003f2:	464b      	mov	r3, r9
 80003f4:	d354      	bcc.n	80004a0 <__udivmoddi4+0x298>
 80003f6:	d051      	beq.n	800049c <__udivmoddi4+0x294>
 80003f8:	2e00      	cmp	r6, #0
 80003fa:	d069      	beq.n	80004d0 <__udivmoddi4+0x2c8>
 80003fc:	ebb1 050a 	subs.w	r5, r1, sl
 8000400:	eb64 0403 	sbc.w	r4, r4, r3
 8000404:	fa04 fc0c 	lsl.w	ip, r4, ip
 8000408:	40fd      	lsrs	r5, r7
 800040a:	40fc      	lsrs	r4, r7
 800040c:	ea4c 0505 	orr.w	r5, ip, r5
 8000410:	e9c6 5400 	strd	r5, r4, [r6]
 8000414:	2700      	movs	r7, #0
 8000416:	e747      	b.n	80002a8 <__udivmoddi4+0xa0>
 8000418:	f1c2 0320 	rsb	r3, r2, #32
 800041c:	fa20 f703 	lsr.w	r7, r0, r3
 8000420:	4095      	lsls	r5, r2
 8000422:	fa01 f002 	lsl.w	r0, r1, r2
 8000426:	fa21 f303 	lsr.w	r3, r1, r3
 800042a:	ea4f 4e15 	mov.w	lr, r5, lsr #16
 800042e:	4338      	orrs	r0, r7
 8000430:	0c01      	lsrs	r1, r0, #16
 8000432:	fbb3 f7fe 	udiv	r7, r3, lr
 8000436:	fa1f f885 	uxth.w	r8, r5
 800043a:	fb0e 3317 	mls	r3, lr, r7, r3
 800043e:	ea41 4103 	orr.w	r1, r1, r3, lsl #16
 8000442:	fb07 f308 	mul.w	r3, r7, r8
 8000446:	428b      	cmp	r3, r1
 8000448:	fa04 f402 	lsl.w	r4, r4, r2
 800044c:	d907      	bls.n	800045e <__udivmoddi4+0x256>
 800044e:	1869      	adds	r1, r5, r1
 8000450:	f107 3cff 	add.w	ip, r7, #4294967295	; 0xffffffff
 8000454:	d22f      	bcs.n	80004b6 <__udivmoddi4+0x2ae>
 8000456:	428b      	cmp	r3, r1
 8000458:	d92d      	bls.n	80004b6 <__udivmoddi4+0x2ae>
 800045a:	3f02      	subs	r7, #2
 800045c:	4429      	add	r1, r5
 800045e:	1acb      	subs	r3, r1, r3
 8000460:	b281      	uxth	r1, r0
 8000462:	fbb3 f0fe 	udiv	r0, r3, lr
 8000466:	fb0e 3310 	mls	r3, lr, r0, r3
 800046a:	ea41 4103 	orr.w	r1, r1, r3, lsl #16
 800046e:	fb00 f308 	mul.w	r3, r0, r8
 8000472:	428b      	cmp	r3, r1
 8000474:	d907      	bls.n	8000486 <__udivmoddi4+0x27e>
 8000476:	1869      	adds	r1, r5, r1
 8000478:	f100 3cff 	add.w	ip, r0, #4294967295	; 0xffffffff
 800047c:	d217      	bcs.n	80004ae <__udivmoddi4+0x2a6>
 800047e:	428b      	cmp	r3, r1
 8000480:	d915      	bls.n	80004ae <__udivmoddi4+0x2a6>
 8000482:	3802      	subs	r0, #2
 8000484:	4429      	add	r1, r5
 8000486:	1ac9      	subs	r1, r1, r3
 8000488:	ea40 4707 	orr.w	r7, r0, r7, lsl #16
 800048c:	e73b      	b.n	8000306 <__udivmoddi4+0xfe>
 800048e:	4637      	mov	r7, r6
 8000490:	4630      	mov	r0, r6
 8000492:	e709      	b.n	80002a8 <__udivmoddi4+0xa0>
 8000494:	4607      	mov	r7, r0
 8000496:	e6e7      	b.n	8000268 <__udivmoddi4+0x60>
 8000498:	4618      	mov	r0, r3
 800049a:	e6fb      	b.n	8000294 <__udivmoddi4+0x8c>
 800049c:	4541      	cmp	r1, r8
 800049e:	d2ab      	bcs.n	80003f8 <__udivmoddi4+0x1f0>
 80004a0:	ebb8 0a02 	subs.w	sl, r8, r2
 80004a4:	eb69 020e 	sbc.w	r2, r9, lr
 80004a8:	3801      	subs	r0, #1
 80004aa:	4613      	mov	r3, r2
 80004ac:	e7a4      	b.n	80003f8 <__udivmoddi4+0x1f0>
 80004ae:	4660      	mov	r0, ip
 80004b0:	e7e9      	b.n	8000486 <__udivmoddi4+0x27e>
 80004b2:	4618      	mov	r0, r3
 80004b4:	e795      	b.n	80003e2 <__udivmoddi4+0x1da>
 80004b6:	4667      	mov	r7, ip
 80004b8:	e7d1      	b.n	800045e <__udivmoddi4+0x256>
 80004ba:	4681      	mov	r9, r0
 80004bc:	e77c      	b.n	80003b8 <__udivmoddi4+0x1b0>
 80004be:	3802      	subs	r0, #2
 80004c0:	442c      	add	r4, r5
 80004c2:	e747      	b.n	8000354 <__udivmoddi4+0x14c>
 80004c4:	f1ac 0c02 	sub.w	ip, ip, #2
 80004c8:	442b      	add	r3, r5
 80004ca:	e72f      	b.n	800032c <__udivmoddi4+0x124>
 80004cc:	4638      	mov	r0, r7
 80004ce:	e708      	b.n	80002e2 <__udivmoddi4+0xda>
 80004d0:	4637      	mov	r7, r6
 80004d2:	e6e9      	b.n	80002a8 <__udivmoddi4+0xa0>

080004d4 <__aeabi_idiv0>:
 80004d4:	4770      	bx	lr
 80004d6:	bf00      	nop

080004d8 <MX_DMA_Init>:
 80004d8:	b513      	push	{r0, r1, r4, lr}
 80004da:	4b0f      	ldr	r3, [pc, #60]	; (8000518 <MX_DMA_Init+0x40>)
 80004dc:	2400      	movs	r4, #0
 80004de:	9401      	str	r4, [sp, #4]
 80004e0:	6b1a      	ldr	r2, [r3, #48]	; 0x30
 80004e2:	f442 1200 	orr.w	r2, r2, #2097152	; 0x200000
 80004e6:	631a      	str	r2, [r3, #48]	; 0x30
 80004e8:	6b1b      	ldr	r3, [r3, #48]	; 0x30
 80004ea:	f403 1300 	and.w	r3, r3, #2097152	; 0x200000
 80004ee:	4622      	mov	r2, r4
 80004f0:	4621      	mov	r1, r4
 80004f2:	9301      	str	r3, [sp, #4]
 80004f4:	200b      	movs	r0, #11
 80004f6:	9b01      	ldr	r3, [sp, #4]
 80004f8:	f000 fc02 	bl	8000d00 <HAL_NVIC_SetPriority>
 80004fc:	200b      	movs	r0, #11
 80004fe:	f000 fc43 	bl	8000d88 <HAL_NVIC_EnableIRQ>
 8000502:	4622      	mov	r2, r4
 8000504:	4621      	mov	r1, r4
 8000506:	200c      	movs	r0, #12
 8000508:	f000 fbfa 	bl	8000d00 <HAL_NVIC_SetPriority>
 800050c:	200c      	movs	r0, #12
 800050e:	b002      	add	sp, #8
 8000510:	e8bd 4010 	ldmia.w	sp!, {r4, lr}
 8000514:	f000 bc38 	b.w	8000d88 <HAL_NVIC_EnableIRQ>
 8000518:	40023800 	.word	0x40023800

0800051c <MX_GPIO_Init>:
 800051c:	b530      	push	{r4, r5, lr}
 800051e:	2214      	movs	r2, #20
 8000520:	b08b      	sub	sp, #44	; 0x2c
 8000522:	eb0d 0002 	add.w	r0, sp, r2
 8000526:	2100      	movs	r1, #0
 8000528:	f003 f9eb 	bl	8003902 <memset>
 800052c:	2400      	movs	r4, #0
 800052e:	4b22      	ldr	r3, [pc, #136]	; (80005b8 <MX_GPIO_Init+0x9c>)
 8000530:	9401      	str	r4, [sp, #4]
 8000532:	6b1a      	ldr	r2, [r3, #48]	; 0x30
 8000534:	4d21      	ldr	r5, [pc, #132]	; (80005bc <MX_GPIO_Init+0xa0>)
 8000536:	f042 0204 	orr.w	r2, r2, #4
 800053a:	631a      	str	r2, [r3, #48]	; 0x30
 800053c:	6b1a      	ldr	r2, [r3, #48]	; 0x30
 800053e:	f002 0204 	and.w	r2, r2, #4
 8000542:	9201      	str	r2, [sp, #4]
 8000544:	9a01      	ldr	r2, [sp, #4]
 8000546:	9402      	str	r4, [sp, #8]
 8000548:	6b1a      	ldr	r2, [r3, #48]	; 0x30
 800054a:	f042 0280 	orr.w	r2, r2, #128	; 0x80
 800054e:	631a      	str	r2, [r3, #48]	; 0x30
 8000550:	6b1a      	ldr	r2, [r3, #48]	; 0x30
 8000552:	f002 0280 	and.w	r2, r2, #128	; 0x80
 8000556:	9202      	str	r2, [sp, #8]
 8000558:	9a02      	ldr	r2, [sp, #8]
 800055a:	9403      	str	r4, [sp, #12]
 800055c:	6b1a      	ldr	r2, [r3, #48]	; 0x30
 800055e:	f042 0201 	orr.w	r2, r2, #1
 8000562:	631a      	str	r2, [r3, #48]	; 0x30
 8000564:	6b1a      	ldr	r2, [r3, #48]	; 0x30
 8000566:	f002 0201 	and.w	r2, r2, #1
 800056a:	9203      	str	r2, [sp, #12]
 800056c:	9a03      	ldr	r2, [sp, #12]
 800056e:	9404      	str	r4, [sp, #16]
 8000570:	6b1a      	ldr	r2, [r3, #48]	; 0x30
 8000572:	f042 0202 	orr.w	r2, r2, #2
 8000576:	631a      	str	r2, [r3, #48]	; 0x30
 8000578:	6b1b      	ldr	r3, [r3, #48]	; 0x30
 800057a:	f003 0302 	and.w	r3, r3, #2
 800057e:	9304      	str	r3, [sp, #16]
 8000580:	4622      	mov	r2, r4
 8000582:	4628      	mov	r0, r5
 8000584:	2120      	movs	r1, #32
 8000586:	9b04      	ldr	r3, [sp, #16]
 8000588:	f000 ffbc 	bl	8001504 <HAL_GPIO_WritePin>
 800058c:	4b0c      	ldr	r3, [pc, #48]	; (80005c0 <MX_GPIO_Init+0xa4>)
 800058e:	480d      	ldr	r0, [pc, #52]	; (80005c4 <MX_GPIO_Init+0xa8>)
 8000590:	9407      	str	r4, [sp, #28]
 8000592:	f44f 5200 	mov.w	r2, #8192	; 0x2000
 8000596:	a905      	add	r1, sp, #20
 8000598:	e9cd 2305 	strd	r2, r3, [sp, #20]
 800059c:	f000 fe82 	bl	80012a4 <HAL_GPIO_Init>
 80005a0:	2301      	movs	r3, #1
 80005a2:	2120      	movs	r1, #32
 80005a4:	e9cd 1305 	strd	r1, r3, [sp, #20]
 80005a8:	4628      	mov	r0, r5
 80005aa:	a905      	add	r1, sp, #20
 80005ac:	e9cd 4407 	strd	r4, r4, [sp, #28]
 80005b0:	f000 fe78 	bl	80012a4 <HAL_GPIO_Init>
 80005b4:	b00b      	add	sp, #44	; 0x2c
 80005b6:	bd30      	pop	{r4, r5, pc}
 80005b8:	40023800 	.word	0x40023800
 80005bc:	40020000 	.word	0x40020000
 80005c0:	10210000 	.word	0x10210000
 80005c4:	40020800 	.word	0x40020800

080005c8 <MX_I2C1_Init>:
 80005c8:	b508      	push	{r3, lr}
 80005ca:	480d      	ldr	r0, [pc, #52]	; (8000600 <MX_I2C1_Init+0x38>)
 80005cc:	4a0d      	ldr	r2, [pc, #52]	; (8000604 <MX_I2C1_Init+0x3c>)
 80005ce:	4b0e      	ldr	r3, [pc, #56]	; (8000608 <MX_I2C1_Init+0x40>)
 80005d0:	e9c0 2300 	strd	r2, r3, [r0]
 80005d4:	2300      	movs	r3, #0
 80005d6:	2228      	movs	r2, #40	; 0x28
 80005d8:	e9c0 3202 	strd	r3, r2, [r0, #8]
 80005dc:	f44f 4180 	mov.w	r1, #16384	; 0x4000
 80005e0:	2201      	movs	r2, #1
 80005e2:	e9c0 1204 	strd	r1, r2, [r0, #16]
 80005e6:	222a      	movs	r2, #42	; 0x2a
 80005e8:	e9c0 2306 	strd	r2, r3, [r0, #24]
 80005ec:	6203      	str	r3, [r0, #32]
 80005ee:	f000 ffa3 	bl	8001538 <HAL_I2C_Init>
 80005f2:	b118      	cbz	r0, 80005fc <MX_I2C1_Init+0x34>
 80005f4:	e8bd 4008 	ldmia.w	sp!, {r3, lr}
 80005f8:	f000 ba04 	b.w	8000a04 <Error_Handler>
 80005fc:	bd08      	pop	{r3, pc}
 80005fe:	bf00      	nop
 8000600:	20000098 	.word	0x20000098
 8000604:	40005400 	.word	0x40005400
 8000608:	00061a80 	.word	0x00061a80

0800060c <HAL_I2C_MspInit>:
 800060c:	b570      	push	{r4, r5, r6, lr}
 800060e:	4606      	mov	r6, r0
 8000610:	b088      	sub	sp, #32
 8000612:	2214      	movs	r2, #20
 8000614:	2100      	movs	r1, #0
 8000616:	a803      	add	r0, sp, #12
 8000618:	f003 f973 	bl	8003902 <memset>
 800061c:	6832      	ldr	r2, [r6, #0]
 800061e:	4b39      	ldr	r3, [pc, #228]	; (8000704 <HAL_I2C_MspInit+0xf8>)
 8000620:	429a      	cmp	r2, r3
 8000622:	d16c      	bne.n	80006fe <HAL_I2C_MspInit+0xf2>
 8000624:	2500      	movs	r5, #0
 8000626:	4c38      	ldr	r4, [pc, #224]	; (8000708 <HAL_I2C_MspInit+0xfc>)
 8000628:	9501      	str	r5, [sp, #4]
 800062a:	6b23      	ldr	r3, [r4, #48]	; 0x30
 800062c:	f043 0302 	orr.w	r3, r3, #2
 8000630:	6323      	str	r3, [r4, #48]	; 0x30
 8000632:	6b23      	ldr	r3, [r4, #48]	; 0x30
 8000634:	f003 0302 	and.w	r3, r3, #2
 8000638:	9301      	str	r3, [sp, #4]
 800063a:	9b01      	ldr	r3, [sp, #4]
 800063c:	20c0      	movs	r0, #192	; 0xc0
 800063e:	2312      	movs	r3, #18
 8000640:	e9cd 0303 	strd	r0, r3, [sp, #12]
 8000644:	f04f 0c01 	mov.w	ip, #1
 8000648:	2303      	movs	r3, #3
 800064a:	e9cd c305 	strd	ip, r3, [sp, #20]
 800064e:	482f      	ldr	r0, [pc, #188]	; (800070c <HAL_I2C_MspInit+0x100>)
 8000650:	2304      	movs	r3, #4
 8000652:	a903      	add	r1, sp, #12
 8000654:	9307      	str	r3, [sp, #28]
 8000656:	f000 fe25 	bl	80012a4 <HAL_GPIO_Init>
 800065a:	9502      	str	r5, [sp, #8]
 800065c:	6c23      	ldr	r3, [r4, #64]	; 0x40
 800065e:	f443 1300 	orr.w	r3, r3, #2097152	; 0x200000
 8000662:	6423      	str	r3, [r4, #64]	; 0x40
 8000664:	6c23      	ldr	r3, [r4, #64]	; 0x40
 8000666:	4c2a      	ldr	r4, [pc, #168]	; (8000710 <HAL_I2C_MspInit+0x104>)
 8000668:	f403 1300 	and.w	r3, r3, #2097152	; 0x200000
 800066c:	9302      	str	r3, [sp, #8]
 800066e:	9b02      	ldr	r3, [sp, #8]
 8000670:	4b28      	ldr	r3, [pc, #160]	; (8000714 <HAL_I2C_MspInit+0x108>)
 8000672:	61a5      	str	r5, [r4, #24]
 8000674:	e9c4 3500 	strd	r3, r5, [r4]
 8000678:	2340      	movs	r3, #64	; 0x40
 800067a:	e9c4 3502 	strd	r3, r5, [r4, #8]
 800067e:	f44f 6380 	mov.w	r3, #1024	; 0x400
 8000682:	e9c4 3504 	strd	r3, r5, [r4, #16]
 8000686:	f44f 7e80 	mov.w	lr, #256	; 0x100
 800068a:	f44f 3340 	mov.w	r3, #196608	; 0x30000
 800068e:	4620      	mov	r0, r4
 8000690:	e9c4 e307 	strd	lr, r3, [r4, #28]
 8000694:	6265      	str	r5, [r4, #36]	; 0x24
 8000696:	f000 fbb7 	bl	8000e08 <HAL_DMA_Init>
 800069a:	b108      	cbz	r0, 80006a0 <HAL_I2C_MspInit+0x94>
 800069c:	f000 f9b2 	bl	8000a04 <Error_Handler>
 80006a0:	6374      	str	r4, [r6, #52]	; 0x34
 80006a2:	4a1d      	ldr	r2, [pc, #116]	; (8000718 <HAL_I2C_MspInit+0x10c>)
 80006a4:	63a6      	str	r6, [r4, #56]	; 0x38
 80006a6:	4c1d      	ldr	r4, [pc, #116]	; (800071c <HAL_I2C_MspInit+0x110>)
 80006a8:	f04f 7300 	mov.w	r3, #33554432	; 0x2000000
 80006ac:	e9c4 2300 	strd	r2, r3, [r4]
 80006b0:	2300      	movs	r3, #0
 80006b2:	f44f 6280 	mov.w	r2, #1024	; 0x400
 80006b6:	e9c4 2304 	strd	r2, r3, [r4, #16]
 80006ba:	f44f 7180 	mov.w	r1, #256	; 0x100
 80006be:	f44f 3240 	mov.w	r2, #196608	; 0x30000
 80006c2:	4620      	mov	r0, r4
 80006c4:	e9c4 3302 	strd	r3, r3, [r4, #8]
 80006c8:	61a3      	str	r3, [r4, #24]
 80006ca:	e9c4 1207 	strd	r1, r2, [r4, #28]
 80006ce:	6263      	str	r3, [r4, #36]	; 0x24
 80006d0:	f000 fb9a 	bl	8000e08 <HAL_DMA_Init>
 80006d4:	b108      	cbz	r0, 80006da <HAL_I2C_MspInit+0xce>
 80006d6:	f000 f995 	bl	8000a04 <Error_Handler>
 80006da:	2200      	movs	r2, #0
 80006dc:	4611      	mov	r1, r2
 80006de:	63b4      	str	r4, [r6, #56]	; 0x38
 80006e0:	201f      	movs	r0, #31
 80006e2:	63a6      	str	r6, [r4, #56]	; 0x38
 80006e4:	f000 fb0c 	bl	8000d00 <HAL_NVIC_SetPriority>
 80006e8:	201f      	movs	r0, #31
 80006ea:	f000 fb4d 	bl	8000d88 <HAL_NVIC_EnableIRQ>
 80006ee:	2200      	movs	r2, #0
 80006f0:	2020      	movs	r0, #32
 80006f2:	4611      	mov	r1, r2
 80006f4:	f000 fb04 	bl	8000d00 <HAL_NVIC_SetPriority>
 80006f8:	2020      	movs	r0, #32
 80006fa:	f000 fb45 	bl	8000d88 <HAL_NVIC_EnableIRQ>
 80006fe:	b008      	add	sp, #32
 8000700:	bd70      	pop	{r4, r5, r6, pc}
 8000702:	bf00      	nop
 8000704:	40005400 	.word	0x40005400
 8000708:	40023800 	.word	0x40023800
 800070c:	40020400 	.word	0x40020400
 8000710:	20000038 	.word	0x20000038
 8000714:	40026028 	.word	0x40026028
 8000718:	40026010 	.word	0x40026010
 800071c:	200000ec 	.word	0x200000ec

08000720 <getRegister>:
 8000720:	b570      	push	{r4, r5, r6, lr}
 8000722:	4d10      	ldr	r5, [pc, #64]	; (8000764 <getRegister+0x44>)
 8000724:	4c10      	ldr	r4, [pc, #64]	; (8000768 <getRegister+0x48>)
 8000726:	4606      	mov	r6, r0
 8000728:	4629      	mov	r1, r5
 800072a:	2201      	movs	r2, #1
 800072c:	480f      	ldr	r0, [pc, #60]	; (800076c <getRegister+0x4c>)
 800072e:	f002 fe93 	bl	8003458 <HAL_RTC_GetTime>
 8000732:	2201      	movs	r2, #1
 8000734:	4621      	mov	r1, r4
 8000736:	480d      	ldr	r0, [pc, #52]	; (800076c <getRegister+0x4c>)
 8000738:	f002 ff7a 	bl	8003630 <HAL_RTC_GetDate>
 800073c:	480c      	ldr	r0, [pc, #48]	; (8000770 <getRegister+0x50>)
 800073e:	78ab      	ldrb	r3, [r5, #2]
 8000740:	7003      	strb	r3, [r0, #0]
 8000742:	786b      	ldrb	r3, [r5, #1]
 8000744:	7043      	strb	r3, [r0, #1]
 8000746:	782b      	ldrb	r3, [r5, #0]
 8000748:	7083      	strb	r3, [r0, #2]
 800074a:	7823      	ldrb	r3, [r4, #0]
 800074c:	70c3      	strb	r3, [r0, #3]
 800074e:	78a3      	ldrb	r3, [r4, #2]
 8000750:	7103      	strb	r3, [r0, #4]
 8000752:	7863      	ldrb	r3, [r4, #1]
 8000754:	7143      	strb	r3, [r0, #5]
 8000756:	78e3      	ldrb	r3, [r4, #3]
 8000758:	7183      	strb	r3, [r0, #6]
 800075a:	2e06      	cmp	r6, #6
 800075c:	bf94      	ite	ls
 800075e:	1980      	addls	r0, r0, r6
 8000760:	2000      	movhi	r0, #0
 8000762:	bd70      	pop	{r4, r5, r6, pc}
 8000764:	20000198 	.word	0x20000198
 8000768:	200001ac 	.word	0x200001ac
 800076c:	200001b0 	.word	0x200001b0
 8000770:	20000000 	.word	0x20000000

08000774 <ds3231_cmd_decode>:
 8000774:	b084      	sub	sp, #16
 8000776:	b57f      	push	{r0, r1, r2, r3, r4, r5, r6, lr}
 8000778:	f10d 0c20 	add.w	ip, sp, #32
 800077c:	e88c 000f 	stmia.w	ip, {r0, r1, r2, r3}
 8000780:	f89d 3023 	ldrb.w	r3, [sp, #35]	; 0x23
 8000784:	f89d 2022 	ldrb.w	r2, [sp, #34]	; 0x22
 8000788:	2b06      	cmp	r3, #6
 800078a:	d848      	bhi.n	800081e <ds3231_cmd_decode+0xaa>
 800078c:	e8df f003 	tbb	[pc, r3]
 8000790:	5b595704 	.word	0x5b595704
 8000794:	5f5d      	.short	0x5f5d
 8000796:	61          	.byte	0x61
 8000797:	00          	.byte	0x00
 8000798:	2a00      	cmp	r2, #0
 800079a:	d040      	beq.n	800081e <ds3231_cmd_decode+0xaa>
 800079c:	2300      	movs	r3, #0
 800079e:	3a01      	subs	r2, #1
 80007a0:	9303      	str	r3, [sp, #12]
 80007a2:	f89d 3024 	ldrb.w	r3, [sp, #36]	; 0x24
 80007a6:	f88d 3006 	strb.w	r3, [sp, #6]
 80007aa:	b2d2      	uxtb	r2, r2
 80007ac:	2302      	movs	r3, #2
 80007ae:	2a00      	cmp	r2, #0
 80007b0:	d035      	beq.n	800081e <ds3231_cmd_decode+0xaa>
 80007b2:	a908      	add	r1, sp, #32
 80007b4:	4419      	add	r1, r3
 80007b6:	3a01      	subs	r2, #1
 80007b8:	78c9      	ldrb	r1, [r1, #3]
 80007ba:	f88d 1005 	strb.w	r1, [sp, #5]
 80007be:	b2d2      	uxtb	r2, r2
 80007c0:	3301      	adds	r3, #1
 80007c2:	b362      	cbz	r2, 800081e <ds3231_cmd_decode+0xaa>
 80007c4:	a908      	add	r1, sp, #32
 80007c6:	4419      	add	r1, r3
 80007c8:	3a01      	subs	r2, #1
 80007ca:	78c9      	ldrb	r1, [r1, #3]
 80007cc:	f88d 1004 	strb.w	r1, [sp, #4]
 80007d0:	3301      	adds	r3, #1
 80007d2:	b2d2      	uxtb	r2, r2
 80007d4:	b2db      	uxtb	r3, r3
 80007d6:	b312      	cbz	r2, 800081e <ds3231_cmd_decode+0xaa>
 80007d8:	a908      	add	r1, sp, #32
 80007da:	4419      	add	r1, r3
 80007dc:	3a01      	subs	r2, #1
 80007de:	78c9      	ldrb	r1, [r1, #3]
 80007e0:	f88d 1000 	strb.w	r1, [sp]
 80007e4:	3301      	adds	r3, #1
 80007e6:	b2d2      	uxtb	r2, r2
 80007e8:	b2db      	uxtb	r3, r3
 80007ea:	b1c2      	cbz	r2, 800081e <ds3231_cmd_decode+0xaa>
 80007ec:	a908      	add	r1, sp, #32
 80007ee:	4419      	add	r1, r3
 80007f0:	3a01      	subs	r2, #1
 80007f2:	78c9      	ldrb	r1, [r1, #3]
 80007f4:	f88d 1002 	strb.w	r1, [sp, #2]
 80007f8:	3301      	adds	r3, #1
 80007fa:	b2d2      	uxtb	r2, r2
 80007fc:	b2db      	uxtb	r3, r3
 80007fe:	b172      	cbz	r2, 800081e <ds3231_cmd_decode+0xaa>
 8000800:	a908      	add	r1, sp, #32
 8000802:	4419      	add	r1, r3
 8000804:	3a01      	subs	r2, #1
 8000806:	78c9      	ldrb	r1, [r1, #3]
 8000808:	f88d 1001 	strb.w	r1, [sp, #1]
 800080c:	3301      	adds	r3, #1
 800080e:	b2d2      	uxtb	r2, r2
 8000810:	b2db      	uxtb	r3, r3
 8000812:	b122      	cbz	r2, 800081e <ds3231_cmd_decode+0xaa>
 8000814:	aa08      	add	r2, sp, #32
 8000816:	4413      	add	r3, r2
 8000818:	78db      	ldrb	r3, [r3, #3]
 800081a:	f88d 3003 	strb.w	r3, [sp, #3]
 800081e:	a901      	add	r1, sp, #4
 8000820:	2201      	movs	r2, #1
 8000822:	480d      	ldr	r0, [pc, #52]	; (8000858 <ds3231_cmd_decode+0xe4>)
 8000824:	f002 fd32 	bl	800328c <HAL_RTC_SetTime>
 8000828:	2201      	movs	r2, #1
 800082a:	4669      	mov	r1, sp
 800082c:	480a      	ldr	r0, [pc, #40]	; (8000858 <ds3231_cmd_decode+0xe4>)
 800082e:	f002 fe47 	bl	80034c0 <HAL_RTC_SetDate>
 8000832:	2000      	movs	r0, #0
 8000834:	b007      	add	sp, #28
 8000836:	f85d eb04 	ldr.w	lr, [sp], #4
 800083a:	b004      	add	sp, #16
 800083c:	4770      	bx	lr
 800083e:	2301      	movs	r3, #1
 8000840:	e7b5      	b.n	80007ae <ds3231_cmd_decode+0x3a>
 8000842:	2301      	movs	r3, #1
 8000844:	e7bd      	b.n	80007c2 <ds3231_cmd_decode+0x4e>
 8000846:	2301      	movs	r3, #1
 8000848:	e7c5      	b.n	80007d6 <ds3231_cmd_decode+0x62>
 800084a:	2301      	movs	r3, #1
 800084c:	e7cd      	b.n	80007ea <ds3231_cmd_decode+0x76>
 800084e:	2301      	movs	r3, #1
 8000850:	e7d5      	b.n	80007fe <ds3231_cmd_decode+0x8a>
 8000852:	2301      	movs	r3, #1
 8000854:	e7dd      	b.n	8000812 <ds3231_cmd_decode+0x9e>
 8000856:	bf00      	nop
 8000858:	200001b0 	.word	0x200001b0

0800085c <HAL_I2C_AddrCallback>:
 800085c:	b510      	push	{r4, lr}
 800085e:	460b      	mov	r3, r1
 8000860:	b161      	cbz	r1, 800087c <HAL_I2C_AddrCallback+0x20>
 8000862:	2901      	cmp	r1, #1
 8000864:	d11b      	bne.n	800089e <HAL_I2C_AddrCallback+0x42>
 8000866:	490e      	ldr	r1, [pc, #56]	; (80008a0 <HAL_I2C_AddrCallback+0x44>)
 8000868:	480e      	ldr	r0, [pc, #56]	; (80008a4 <HAL_I2C_AddrCallback+0x48>)
 800086a:	800a      	strh	r2, [r1, #0]
 800086c:	490e      	ldr	r1, [pc, #56]	; (80008a8 <HAL_I2C_AddrCallback+0x4c>)
 800086e:	e8bd 4010 	ldmia.w	sp!, {r4, lr}
 8000872:	800a      	strh	r2, [r1, #0]
 8000874:	2220      	movs	r2, #32
 8000876:	490d      	ldr	r1, [pc, #52]	; (80008ac <HAL_I2C_AddrCallback+0x50>)
 8000878:	f001 b828 	b.w	80018cc <HAL_I2C_Slave_Seq_Receive_DMA>
 800087c:	4b0b      	ldr	r3, [pc, #44]	; (80008ac <HAL_I2C_AddrCallback+0x50>)
 800087e:	7818      	ldrb	r0, [r3, #0]
 8000880:	f7ff ff4e 	bl	8000720 <getRegister>
 8000884:	4b0a      	ldr	r3, [pc, #40]	; (80008b0 <HAL_I2C_AddrCallback+0x54>)
 8000886:	6018      	str	r0, [r3, #0]
 8000888:	4b0a      	ldr	r3, [pc, #40]	; (80008b4 <HAL_I2C_AddrCallback+0x58>)
 800088a:	2208      	movs	r2, #8
 800088c:	801a      	strh	r2, [r3, #0]
 800088e:	4601      	mov	r1, r0
 8000890:	881a      	ldrh	r2, [r3, #0]
 8000892:	4804      	ldr	r0, [pc, #16]	; (80008a4 <HAL_I2C_AddrCallback+0x48>)
 8000894:	2320      	movs	r3, #32
 8000896:	e8bd 4010 	ldmia.w	sp!, {r4, lr}
 800089a:	f000 bf5f 	b.w	800175c <HAL_I2C_Slave_Seq_Transmit_DMA>
 800089e:	bd10      	pop	{r4, pc}
 80008a0:	20000034 	.word	0x20000034
 80008a4:	20000098 	.word	0x20000098
 80008a8:	20000152 	.word	0x20000152
 80008ac:	20000176 	.word	0x20000176
 80008b0:	2000014c 	.word	0x2000014c
 80008b4:	20000150 	.word	0x20000150

080008b8 <HAL_I2C_ListenCpltCallback>:
 80008b8:	b5f0      	push	{r4, r5, r6, r7, lr}
 80008ba:	4604      	mov	r4, r0
 80008bc:	b087      	sub	sp, #28
 80008be:	481a      	ldr	r0, [pc, #104]	; (8000928 <HAL_I2C_ListenCpltCallback+0x70>)
 80008c0:	f001 f8bc 	bl	8001a3c <HAL_I2C_EnableListen_IT>
 80008c4:	8d63      	ldrh	r3, [r4, #42]	; 0x2a
 80008c6:	4c19      	ldr	r4, [pc, #100]	; (800092c <HAL_I2C_ListenCpltCallback+0x74>)
 80008c8:	b2db      	uxtb	r3, r3
 80008ca:	f1c3 0220 	rsb	r2, r3, #32
 80008ce:	f1c3 031f 	rsb	r3, r3, #31
 80008d2:	b2db      	uxtb	r3, r3
 80008d4:	b2d2      	uxtb	r2, r2
 80008d6:	2b1e      	cmp	r3, #30
 80008d8:	70a2      	strb	r2, [r4, #2]
 80008da:	d823      	bhi.n	8000924 <HAL_I2C_ListenCpltCallback+0x6c>
 80008dc:	1ce0      	adds	r0, r4, #3
 80008de:	4914      	ldr	r1, [pc, #80]	; (8000930 <HAL_I2C_ListenCpltCallback+0x78>)
 80008e0:	f003 f804 	bl	80038ec <memcpy>
 80008e4:	f104 0510 	add.w	r5, r4, #16
 80008e8:	f8d4 e000 	ldr.w	lr, [r4]
 80008ec:	f8d4 c004 	ldr.w	ip, [r4, #4]
 80008f0:	68a2      	ldr	r2, [r4, #8]
 80008f2:	68e3      	ldr	r3, [r4, #12]
 80008f4:	466e      	mov	r6, sp
 80008f6:	3420      	adds	r4, #32
 80008f8:	6828      	ldr	r0, [r5, #0]
 80008fa:	6869      	ldr	r1, [r5, #4]
 80008fc:	4637      	mov	r7, r6
 80008fe:	c703      	stmia	r7!, {r0, r1}
 8000900:	3508      	adds	r5, #8
 8000902:	42a5      	cmp	r5, r4
 8000904:	463e      	mov	r6, r7
 8000906:	d1f7      	bne.n	80008f8 <HAL_I2C_ListenCpltCallback+0x40>
 8000908:	6828      	ldr	r0, [r5, #0]
 800090a:	6038      	str	r0, [r7, #0]
 800090c:	4661      	mov	r1, ip
 800090e:	4670      	mov	r0, lr
 8000910:	f7ff ff30 	bl	8000774 <ds3231_cmd_decode>
 8000914:	4806      	ldr	r0, [pc, #24]	; (8000930 <HAL_I2C_ListenCpltCallback+0x78>)
 8000916:	2220      	movs	r2, #32
 8000918:	2100      	movs	r1, #0
 800091a:	b007      	add	sp, #28
 800091c:	e8bd 40f0 	ldmia.w	sp!, {r4, r5, r6, r7, lr}
 8000920:	f002 bfef 	b.w	8003902 <memset>
 8000924:	b007      	add	sp, #28
 8000926:	bdf0      	pop	{r4, r5, r6, r7, pc}
 8000928:	20000098 	.word	0x20000098
 800092c:	20000152 	.word	0x20000152
 8000930:	20000176 	.word	0x20000176

08000934 <SystemClock_Config>:
 8000934:	b530      	push	{r4, r5, lr}
 8000936:	2400      	movs	r4, #0
 8000938:	b09b      	sub	sp, #108	; 0x6c
 800093a:	4621      	mov	r1, r4
 800093c:	2214      	movs	r2, #20
 800093e:	a803      	add	r0, sp, #12
 8000940:	e9cd 440f 	strd	r4, r4, [sp, #60]	; 0x3c
 8000944:	f002 ffdd 	bl	8003902 <memset>
 8000948:	4621      	mov	r1, r4
 800094a:	2218      	movs	r2, #24
 800094c:	a808      	add	r0, sp, #32
 800094e:	f002 ffd8 	bl	8003902 <memset>
 8000952:	4b1f      	ldr	r3, [pc, #124]	; (80009d0 <SystemClock_Config+0x9c>)
 8000954:	9401      	str	r4, [sp, #4]
 8000956:	6c1a      	ldr	r2, [r3, #64]	; 0x40
 8000958:	f042 5280 	orr.w	r2, r2, #268435456	; 0x10000000
 800095c:	641a      	str	r2, [r3, #64]	; 0x40
 800095e:	6c1b      	ldr	r3, [r3, #64]	; 0x40
 8000960:	f003 5380 	and.w	r3, r3, #268435456	; 0x10000000
 8000964:	9301      	str	r3, [sp, #4]
 8000966:	9b01      	ldr	r3, [sp, #4]
 8000968:	4b1a      	ldr	r3, [pc, #104]	; (80009d4 <SystemClock_Config+0xa0>)
 800096a:	9402      	str	r4, [sp, #8]
 800096c:	681a      	ldr	r2, [r3, #0]
 800096e:	f442 4240 	orr.w	r2, r2, #49152	; 0xc000
 8000972:	601a      	str	r2, [r3, #0]
 8000974:	681b      	ldr	r3, [r3, #0]
 8000976:	f403 4340 	and.w	r3, r3, #49152	; 0xc000
 800097a:	9302      	str	r3, [sp, #8]
 800097c:	9b02      	ldr	r3, [sp, #8]
 800097e:	230a      	movs	r3, #10
 8000980:	2210      	movs	r2, #16
 8000982:	930e      	str	r3, [sp, #56]	; 0x38
 8000984:	2301      	movs	r3, #1
 8000986:	e9cd 3211 	strd	r3, r2, [sp, #68]	; 0x44
 800098a:	9313      	str	r3, [sp, #76]	; 0x4c
 800098c:	2108      	movs	r1, #8
 800098e:	2364      	movs	r3, #100	; 0x64
 8000990:	2502      	movs	r5, #2
 8000992:	e9cd 1316 	strd	r1, r3, [sp, #88]	; 0x58
 8000996:	a80e      	add	r0, sp, #56	; 0x38
 8000998:	2304      	movs	r3, #4
 800099a:	9319      	str	r3, [sp, #100]	; 0x64
 800099c:	e9cd 5414 	strd	r5, r4, [sp, #80]	; 0x50
 80009a0:	9518      	str	r5, [sp, #96]	; 0x60
 80009a2:	f001 ff4b 	bl	800283c <HAL_RCC_OscConfig>
 80009a6:	230f      	movs	r3, #15
 80009a8:	e9cd 3503 	strd	r3, r5, [sp, #12]
 80009ac:	2103      	movs	r1, #3
 80009ae:	f44f 5380 	mov.w	r3, #4096	; 0x1000
 80009b2:	a803      	add	r0, sp, #12
 80009b4:	e9cd 3406 	strd	r3, r4, [sp, #24]
 80009b8:	9405      	str	r4, [sp, #20]
 80009ba:	f002 f987 	bl	8002ccc <HAL_RCC_ClockConfig>
 80009be:	f44f 7300 	mov.w	r3, #512	; 0x200
 80009c2:	a808      	add	r0, sp, #32
 80009c4:	9508      	str	r5, [sp, #32]
 80009c6:	930c      	str	r3, [sp, #48]	; 0x30
 80009c8:	f002 fa94 	bl	8002ef4 <HAL_RCCEx_PeriphCLKConfig>
 80009cc:	b01b      	add	sp, #108	; 0x6c
 80009ce:	bd30      	pop	{r4, r5, pc}
 80009d0:	40023800 	.word	0x40023800
 80009d4:	40007000 	.word	0x40007000

080009d8 <main>:
 80009d8:	b508      	push	{r3, lr}
 80009da:	f000 f947 	bl	8000c6c <HAL_Init>
 80009de:	f7ff ffa9 	bl	8000934 <SystemClock_Config>
 80009e2:	f7ff fd9b 	bl	800051c <MX_GPIO_Init>
 80009e6:	f7ff fd77 	bl	80004d8 <MX_DMA_Init>
 80009ea:	f7ff fded 	bl	80005c8 <MX_I2C1_Init>
 80009ee:	f000 f80b 	bl	8000a08 <MX_RTC_Init>
 80009f2:	f000 f89b 	bl	8000b2c <MX_USART2_UART_Init>
 80009f6:	4802      	ldr	r0, [pc, #8]	; (8000a00 <main+0x28>)
 80009f8:	f001 f820 	bl	8001a3c <HAL_I2C_EnableListen_IT>
 80009fc:	e7fe      	b.n	80009fc <main+0x24>
 80009fe:	bf00      	nop
 8000a00:	20000098 	.word	0x20000098

08000a04 <Error_Handler>:
 8000a04:	4770      	bx	lr

08000a06 <assert_failed>:
 8000a06:	4770      	bx	lr

08000a08 <MX_RTC_Init>:
 8000a08:	b510      	push	{r4, lr}
 8000a0a:	b086      	sub	sp, #24
 8000a0c:	2214      	movs	r2, #20
 8000a0e:	2100      	movs	r1, #0
 8000a10:	a801      	add	r0, sp, #4
 8000a12:	f002 ff76 	bl	8003902 <memset>
 8000a16:	4816      	ldr	r0, [pc, #88]	; (8000a70 <MX_RTC_Init+0x68>)
 8000a18:	4b16      	ldr	r3, [pc, #88]	; (8000a74 <MX_RTC_Init+0x6c>)
 8000a1a:	2400      	movs	r4, #0
 8000a1c:	e9c0 3400 	strd	r3, r4, [r0]
 8000a20:	227f      	movs	r2, #127	; 0x7f
 8000a22:	23ff      	movs	r3, #255	; 0xff
 8000a24:	9400      	str	r4, [sp, #0]
 8000a26:	e9c0 2302 	strd	r2, r3, [r0, #8]
 8000a2a:	e9c0 4404 	strd	r4, r4, [r0, #16]
 8000a2e:	6184      	str	r4, [r0, #24]
 8000a30:	f002 fb92 	bl	8003158 <HAL_RTC_Init>
 8000a34:	b108      	cbz	r0, 8000a3a <MX_RTC_Init+0x32>
 8000a36:	f7ff ffe5 	bl	8000a04 <Error_Handler>
 8000a3a:	2201      	movs	r2, #1
 8000a3c:	a901      	add	r1, sp, #4
 8000a3e:	480c      	ldr	r0, [pc, #48]	; (8000a70 <MX_RTC_Init+0x68>)
 8000a40:	f8ad 4004 	strh.w	r4, [sp, #4]
 8000a44:	f88d 4006 	strb.w	r4, [sp, #6]
 8000a48:	e9cd 4404 	strd	r4, r4, [sp, #16]
 8000a4c:	f002 fc1e 	bl	800328c <HAL_RTC_SetTime>
 8000a50:	b108      	cbz	r0, 8000a56 <MX_RTC_Init+0x4e>
 8000a52:	f7ff ffd7 	bl	8000a04 <Error_Handler>
 8000a56:	a906      	add	r1, sp, #24
 8000a58:	4b07      	ldr	r3, [pc, #28]	; (8000a78 <MX_RTC_Init+0x70>)
 8000a5a:	f841 3d18 	str.w	r3, [r1, #-24]!
 8000a5e:	2201      	movs	r2, #1
 8000a60:	4803      	ldr	r0, [pc, #12]	; (8000a70 <MX_RTC_Init+0x68>)
 8000a62:	f002 fd2d 	bl	80034c0 <HAL_RTC_SetDate>
 8000a66:	b108      	cbz	r0, 8000a6c <MX_RTC_Init+0x64>
 8000a68:	f7ff ffcc 	bl	8000a04 <Error_Handler>
 8000a6c:	b006      	add	sp, #24
 8000a6e:	bd10      	pop	{r4, pc}
 8000a70:	200001b0 	.word	0x200001b0
 8000a74:	40002800 	.word	0x40002800
 8000a78:	00010101 	.word	0x00010101

08000a7c <HAL_RTC_MspInit>:
 8000a7c:	6802      	ldr	r2, [r0, #0]
 8000a7e:	4b03      	ldr	r3, [pc, #12]	; (8000a8c <HAL_RTC_MspInit+0x10>)
 8000a80:	429a      	cmp	r2, r3
 8000a82:	bf02      	ittt	eq
 8000a84:	4b02      	ldreq	r3, [pc, #8]	; (8000a90 <HAL_RTC_MspInit+0x14>)
 8000a86:	2201      	moveq	r2, #1
 8000a88:	601a      	streq	r2, [r3, #0]
 8000a8a:	4770      	bx	lr
 8000a8c:	40002800 	.word	0x40002800
 8000a90:	42470e3c 	.word	0x42470e3c

08000a94 <HAL_MspInit>:
 8000a94:	b082      	sub	sp, #8
 8000a96:	4b0c      	ldr	r3, [pc, #48]	; (8000ac8 <HAL_MspInit+0x34>)
 8000a98:	2100      	movs	r1, #0
 8000a9a:	9100      	str	r1, [sp, #0]
 8000a9c:	6c5a      	ldr	r2, [r3, #68]	; 0x44
 8000a9e:	f442 4280 	orr.w	r2, r2, #16384	; 0x4000
 8000aa2:	645a      	str	r2, [r3, #68]	; 0x44
 8000aa4:	6c5a      	ldr	r2, [r3, #68]	; 0x44
 8000aa6:	f402 4280 	and.w	r2, r2, #16384	; 0x4000
 8000aaa:	9200      	str	r2, [sp, #0]
 8000aac:	9a00      	ldr	r2, [sp, #0]
 8000aae:	9101      	str	r1, [sp, #4]
 8000ab0:	6c1a      	ldr	r2, [r3, #64]	; 0x40
 8000ab2:	f042 5280 	orr.w	r2, r2, #268435456	; 0x10000000
 8000ab6:	641a      	str	r2, [r3, #64]	; 0x40
 8000ab8:	6c1b      	ldr	r3, [r3, #64]	; 0x40
 8000aba:	f003 5380 	and.w	r3, r3, #268435456	; 0x10000000
 8000abe:	9301      	str	r3, [sp, #4]
 8000ac0:	9b01      	ldr	r3, [sp, #4]
 8000ac2:	b002      	add	sp, #8
 8000ac4:	4770      	bx	lr
 8000ac6:	bf00      	nop
 8000ac8:	40023800 	.word	0x40023800

08000acc <NMI_Handler>:
 8000acc:	4770      	bx	lr

08000ace <HardFault_Handler>:
 8000ace:	e7fe      	b.n	8000ace <HardFault_Handler>

08000ad0 <MemManage_Handler>:
 8000ad0:	e7fe      	b.n	8000ad0 <MemManage_Handler>

08000ad2 <BusFault_Handler>:
 8000ad2:	e7fe      	b.n	8000ad2 <BusFault_Handler>

08000ad4 <UsageFault_Handler>:
 8000ad4:	e7fe      	b.n	8000ad4 <UsageFault_Handler>

08000ad6 <SVC_Handler>:
 8000ad6:	4770      	bx	lr

08000ad8 <DebugMon_Handler>:
 8000ad8:	4770      	bx	lr

08000ada <PendSV_Handler>:
 8000ada:	4770      	bx	lr

08000adc <SysTick_Handler>:
 8000adc:	f000 b8e0 	b.w	8000ca0 <HAL_IncTick>

08000ae0 <DMA1_Stream0_IRQHandler>:
 8000ae0:	4801      	ldr	r0, [pc, #4]	; (8000ae8 <DMA1_Stream0_IRQHandler+0x8>)
 8000ae2:	f000 bb1b 	b.w	800111c <HAL_DMA_IRQHandler>
 8000ae6:	bf00      	nop
 8000ae8:	200000ec 	.word	0x200000ec

08000aec <DMA1_Stream1_IRQHandler>:
 8000aec:	4801      	ldr	r0, [pc, #4]	; (8000af4 <DMA1_Stream1_IRQHandler+0x8>)
 8000aee:	f000 bb15 	b.w	800111c <HAL_DMA_IRQHandler>
 8000af2:	bf00      	nop
 8000af4:	20000038 	.word	0x20000038

08000af8 <I2C1_EV_IRQHandler>:
 8000af8:	4801      	ldr	r0, [pc, #4]	; (8000b00 <I2C1_EV_IRQHandler+0x8>)
 8000afa:	f001 b9c1 	b.w	8001e80 <HAL_I2C_EV_IRQHandler>
 8000afe:	bf00      	nop
 8000b00:	20000098 	.word	0x20000098

08000b04 <I2C1_ER_IRQHandler>:
 8000b04:	4801      	ldr	r0, [pc, #4]	; (8000b0c <I2C1_ER_IRQHandler+0x8>)
 8000b06:	f001 be01 	b.w	800270c <HAL_I2C_ER_IRQHandler>
 8000b0a:	bf00      	nop
 8000b0c:	20000098 	.word	0x20000098

08000b10 <SystemInit>:
 8000b10:	4b05      	ldr	r3, [pc, #20]	; (8000b28 <SystemInit+0x18>)
 8000b12:	f8d3 2088 	ldr.w	r2, [r3, #136]	; 0x88
 8000b16:	f442 0270 	orr.w	r2, r2, #15728640	; 0xf00000
 8000b1a:	f8c3 2088 	str.w	r2, [r3, #136]	; 0x88
 8000b1e:	f04f 6200 	mov.w	r2, #134217728	; 0x8000000
 8000b22:	609a      	str	r2, [r3, #8]
 8000b24:	4770      	bx	lr
 8000b26:	bf00      	nop
 8000b28:	e000ed00 	.word	0xe000ed00

08000b2c <MX_USART2_UART_Init>:
 8000b2c:	480b      	ldr	r0, [pc, #44]	; (8000b5c <MX_USART2_UART_Init+0x30>)
 8000b2e:	4a0c      	ldr	r2, [pc, #48]	; (8000b60 <MX_USART2_UART_Init+0x34>)
 8000b30:	b508      	push	{r3, lr}
 8000b32:	f44f 33e1 	mov.w	r3, #115200	; 0x1c200
 8000b36:	e9c0 2300 	strd	r2, r3, [r0]
 8000b3a:	2300      	movs	r3, #0
 8000b3c:	220c      	movs	r2, #12
 8000b3e:	e9c0 3302 	strd	r3, r3, [r0, #8]
 8000b42:	6103      	str	r3, [r0, #16]
 8000b44:	e9c0 2305 	strd	r2, r3, [r0, #20]
 8000b48:	61c3      	str	r3, [r0, #28]
 8000b4a:	f002 fe39 	bl	80037c0 <HAL_UART_Init>
 8000b4e:	b118      	cbz	r0, 8000b58 <MX_USART2_UART_Init+0x2c>
 8000b50:	e8bd 4008 	ldmia.w	sp!, {r3, lr}
 8000b54:	f7ff bf56 	b.w	8000a04 <Error_Handler>
 8000b58:	bd08      	pop	{r3, pc}
 8000b5a:	bf00      	nop
 8000b5c:	200001d0 	.word	0x200001d0
 8000b60:	40004400 	.word	0x40004400

08000b64 <HAL_UART_MspInit>:
 8000b64:	b510      	push	{r4, lr}
 8000b66:	4604      	mov	r4, r0
 8000b68:	b088      	sub	sp, #32
 8000b6a:	2214      	movs	r2, #20
 8000b6c:	2100      	movs	r1, #0
 8000b6e:	a803      	add	r0, sp, #12
 8000b70:	f002 fec7 	bl	8003902 <memset>
 8000b74:	6822      	ldr	r2, [r4, #0]
 8000b76:	4b14      	ldr	r3, [pc, #80]	; (8000bc8 <HAL_UART_MspInit+0x64>)
 8000b78:	429a      	cmp	r2, r3
 8000b7a:	d122      	bne.n	8000bc2 <HAL_UART_MspInit+0x5e>
 8000b7c:	f503 33fa 	add.w	r3, r3, #128000	; 0x1f400
 8000b80:	2100      	movs	r1, #0
 8000b82:	9101      	str	r1, [sp, #4]
 8000b84:	6c1a      	ldr	r2, [r3, #64]	; 0x40
 8000b86:	4811      	ldr	r0, [pc, #68]	; (8000bcc <HAL_UART_MspInit+0x68>)
 8000b88:	f442 3200 	orr.w	r2, r2, #131072	; 0x20000
 8000b8c:	641a      	str	r2, [r3, #64]	; 0x40
 8000b8e:	6c1a      	ldr	r2, [r3, #64]	; 0x40
 8000b90:	f402 3200 	and.w	r2, r2, #131072	; 0x20000
 8000b94:	9201      	str	r2, [sp, #4]
 8000b96:	9a01      	ldr	r2, [sp, #4]
 8000b98:	9102      	str	r1, [sp, #8]
 8000b9a:	6b1a      	ldr	r2, [r3, #48]	; 0x30
 8000b9c:	f042 0201 	orr.w	r2, r2, #1
 8000ba0:	631a      	str	r2, [r3, #48]	; 0x30
 8000ba2:	6b1b      	ldr	r3, [r3, #48]	; 0x30
 8000ba4:	f003 0301 	and.w	r3, r3, #1
 8000ba8:	9302      	str	r3, [sp, #8]
 8000baa:	9b02      	ldr	r3, [sp, #8]
 8000bac:	220c      	movs	r2, #12
 8000bae:	2302      	movs	r3, #2
 8000bb0:	2103      	movs	r1, #3
 8000bb2:	e9cd 2303 	strd	r2, r3, [sp, #12]
 8000bb6:	2307      	movs	r3, #7
 8000bb8:	e9cd 1306 	strd	r1, r3, [sp, #24]
 8000bbc:	a903      	add	r1, sp, #12
 8000bbe:	f000 fb71 	bl	80012a4 <HAL_GPIO_Init>
 8000bc2:	b008      	add	sp, #32
 8000bc4:	bd10      	pop	{r4, pc}
 8000bc6:	bf00      	nop
 8000bc8:	40004400 	.word	0x40004400
 8000bcc:	40020000 	.word	0x40020000

08000bd0 <Reset_Handler>:
 8000bd0:	f8df d034 	ldr.w	sp, [pc, #52]	; 8000c08 <LoopFillZerobss+0x14>
 8000bd4:	2100      	movs	r1, #0
 8000bd6:	e003      	b.n	8000be0 <LoopCopyDataInit>

08000bd8 <CopyDataInit>:
 8000bd8:	4b0c      	ldr	r3, [pc, #48]	; (8000c0c <LoopFillZerobss+0x18>)
 8000bda:	585b      	ldr	r3, [r3, r1]
 8000bdc:	5043      	str	r3, [r0, r1]
 8000bde:	3104      	adds	r1, #4

08000be0 <LoopCopyDataInit>:
 8000be0:	480b      	ldr	r0, [pc, #44]	; (8000c10 <LoopFillZerobss+0x1c>)
 8000be2:	4b0c      	ldr	r3, [pc, #48]	; (8000c14 <LoopFillZerobss+0x20>)
 8000be4:	1842      	adds	r2, r0, r1
 8000be6:	429a      	cmp	r2, r3
 8000be8:	d3f6      	bcc.n	8000bd8 <CopyDataInit>
 8000bea:	4a0b      	ldr	r2, [pc, #44]	; (8000c18 <LoopFillZerobss+0x24>)
 8000bec:	e002      	b.n	8000bf4 <LoopFillZerobss>

08000bee <FillZerobss>:
 8000bee:	2300      	movs	r3, #0
 8000bf0:	f842 3b04 	str.w	r3, [r2], #4

08000bf4 <LoopFillZerobss>:
 8000bf4:	4b09      	ldr	r3, [pc, #36]	; (8000c1c <LoopFillZerobss+0x28>)
 8000bf6:	429a      	cmp	r2, r3
 8000bf8:	d3f9      	bcc.n	8000bee <FillZerobss>
 8000bfa:	f7ff ff89 	bl	8000b10 <SystemInit>
 8000bfe:	f002 fe51 	bl	80038a4 <__libc_init_array>
 8000c02:	f7ff fee9 	bl	80009d8 <main>
 8000c06:	4770      	bx	lr
 8000c08:	20020000 	.word	0x20020000
 8000c0c:	08003b24 	.word	0x08003b24
 8000c10:	20000000 	.word	0x20000000
 8000c14:	20000018 	.word	0x20000018
 8000c18:	20000018 	.word	0x20000018
 8000c1c:	20000214 	.word	0x20000214

08000c20 <ADC_IRQHandler>:
 8000c20:	e7fe      	b.n	8000c20 <ADC_IRQHandler>
	...

08000c24 <HAL_InitTick>:
 8000c24:	b538      	push	{r3, r4, r5, lr}
 8000c26:	4a0e      	ldr	r2, [pc, #56]	; (8000c60 <HAL_InitTick+0x3c>)
 8000c28:	4b0e      	ldr	r3, [pc, #56]	; (8000c64 <HAL_InitTick+0x40>)
 8000c2a:	4605      	mov	r5, r0
 8000c2c:	7818      	ldrb	r0, [r3, #0]
 8000c2e:	f44f 737a 	mov.w	r3, #1000	; 0x3e8
 8000c32:	fbb3 f3f0 	udiv	r3, r3, r0
 8000c36:	6810      	ldr	r0, [r2, #0]
 8000c38:	fbb0 f0f3 	udiv	r0, r0, r3
 8000c3c:	f000 f8b8 	bl	8000db0 <HAL_SYSTICK_Config>
 8000c40:	4604      	mov	r4, r0
 8000c42:	b958      	cbnz	r0, 8000c5c <HAL_InitTick+0x38>
 8000c44:	2d0f      	cmp	r5, #15
 8000c46:	d809      	bhi.n	8000c5c <HAL_InitTick+0x38>
 8000c48:	4602      	mov	r2, r0
 8000c4a:	4629      	mov	r1, r5
 8000c4c:	f04f 30ff 	mov.w	r0, #4294967295	; 0xffffffff
 8000c50:	f000 f856 	bl	8000d00 <HAL_NVIC_SetPriority>
 8000c54:	4b04      	ldr	r3, [pc, #16]	; (8000c68 <HAL_InitTick+0x44>)
 8000c56:	4620      	mov	r0, r4
 8000c58:	601d      	str	r5, [r3, #0]
 8000c5a:	bd38      	pop	{r3, r4, r5, pc}
 8000c5c:	2001      	movs	r0, #1
 8000c5e:	e7fc      	b.n	8000c5a <HAL_InitTick+0x36>
 8000c60:	2000000c 	.word	0x2000000c
 8000c64:	20000010 	.word	0x20000010
 8000c68:	20000014 	.word	0x20000014

08000c6c <HAL_Init>:
 8000c6c:	b508      	push	{r3, lr}
 8000c6e:	4b0b      	ldr	r3, [pc, #44]	; (8000c9c <HAL_Init+0x30>)
 8000c70:	681a      	ldr	r2, [r3, #0]
 8000c72:	f442 7200 	orr.w	r2, r2, #512	; 0x200
 8000c76:	601a      	str	r2, [r3, #0]
 8000c78:	681a      	ldr	r2, [r3, #0]
 8000c7a:	f442 6280 	orr.w	r2, r2, #1024	; 0x400
 8000c7e:	601a      	str	r2, [r3, #0]
 8000c80:	681a      	ldr	r2, [r3, #0]
 8000c82:	f442 7280 	orr.w	r2, r2, #256	; 0x100
 8000c86:	601a      	str	r2, [r3, #0]
 8000c88:	2003      	movs	r0, #3
 8000c8a:	f000 f81b 	bl	8000cc4 <HAL_NVIC_SetPriorityGrouping>
 8000c8e:	2000      	movs	r0, #0
 8000c90:	f7ff ffc8 	bl	8000c24 <HAL_InitTick>
 8000c94:	f7ff fefe 	bl	8000a94 <HAL_MspInit>
 8000c98:	2000      	movs	r0, #0
 8000c9a:	bd08      	pop	{r3, pc}
 8000c9c:	40023c00 	.word	0x40023c00

08000ca0 <HAL_IncTick>:
 8000ca0:	4a03      	ldr	r2, [pc, #12]	; (8000cb0 <HAL_IncTick+0x10>)
 8000ca2:	4b04      	ldr	r3, [pc, #16]	; (8000cb4 <HAL_IncTick+0x14>)
 8000ca4:	6811      	ldr	r1, [r2, #0]
 8000ca6:	781b      	ldrb	r3, [r3, #0]
 8000ca8:	440b      	add	r3, r1
 8000caa:	6013      	str	r3, [r2, #0]
 8000cac:	4770      	bx	lr
 8000cae:	bf00      	nop
 8000cb0:	20000210 	.word	0x20000210
 8000cb4:	20000010 	.word	0x20000010

08000cb8 <HAL_GetTick>:
 8000cb8:	4b01      	ldr	r3, [pc, #4]	; (8000cc0 <HAL_GetTick+0x8>)
 8000cba:	6818      	ldr	r0, [r3, #0]
 8000cbc:	4770      	bx	lr
 8000cbe:	bf00      	nop
 8000cc0:	20000210 	.word	0x20000210

08000cc4 <HAL_NVIC_SetPriorityGrouping>:
 8000cc4:	1ec3      	subs	r3, r0, #3
 8000cc6:	2b04      	cmp	r3, #4
 8000cc8:	b510      	push	{r4, lr}
 8000cca:	4604      	mov	r4, r0
 8000ccc:	d903      	bls.n	8000cd6 <HAL_NVIC_SetPriorityGrouping+0x12>
 8000cce:	2192      	movs	r1, #146	; 0x92
 8000cd0:	4809      	ldr	r0, [pc, #36]	; (8000cf8 <HAL_NVIC_SetPriorityGrouping+0x34>)
 8000cd2:	f7ff fe98 	bl	8000a06 <assert_failed>
 8000cd6:	4a09      	ldr	r2, [pc, #36]	; (8000cfc <HAL_NVIC_SetPriorityGrouping+0x38>)
 8000cd8:	68d3      	ldr	r3, [r2, #12]
 8000cda:	f423 63e0 	bic.w	r3, r3, #1792	; 0x700
 8000cde:	041b      	lsls	r3, r3, #16
 8000ce0:	0c1b      	lsrs	r3, r3, #16
 8000ce2:	f043 63bf 	orr.w	r3, r3, #100139008	; 0x5f80000
 8000ce6:	0224      	lsls	r4, r4, #8
 8000ce8:	f443 3300 	orr.w	r3, r3, #131072	; 0x20000
 8000cec:	f404 64e0 	and.w	r4, r4, #1792	; 0x700
 8000cf0:	431c      	orrs	r4, r3
 8000cf2:	60d4      	str	r4, [r2, #12]
 8000cf4:	bd10      	pop	{r4, pc}
 8000cf6:	bf00      	nop
 8000cf8:	08003944 	.word	0x08003944
 8000cfc:	e000ed00 	.word	0xe000ed00

08000d00 <HAL_NVIC_SetPriority>:
 8000d00:	2a0f      	cmp	r2, #15
 8000d02:	b570      	push	{r4, r5, r6, lr}
 8000d04:	4605      	mov	r5, r0
 8000d06:	460c      	mov	r4, r1
 8000d08:	4616      	mov	r6, r2
 8000d0a:	d903      	bls.n	8000d14 <HAL_NVIC_SetPriority+0x14>
 8000d0c:	21aa      	movs	r1, #170	; 0xaa
 8000d0e:	481b      	ldr	r0, [pc, #108]	; (8000d7c <HAL_NVIC_SetPriority+0x7c>)
 8000d10:	f7ff fe79 	bl	8000a06 <assert_failed>
 8000d14:	2c0f      	cmp	r4, #15
 8000d16:	d903      	bls.n	8000d20 <HAL_NVIC_SetPriority+0x20>
 8000d18:	21ab      	movs	r1, #171	; 0xab
 8000d1a:	4818      	ldr	r0, [pc, #96]	; (8000d7c <HAL_NVIC_SetPriority+0x7c>)
 8000d1c:	f7ff fe73 	bl	8000a06 <assert_failed>
 8000d20:	4b17      	ldr	r3, [pc, #92]	; (8000d80 <HAL_NVIC_SetPriority+0x80>)
 8000d22:	68da      	ldr	r2, [r3, #12]
 8000d24:	f3c2 2202 	ubfx	r2, r2, #8, #3
 8000d28:	f1c2 0307 	rsb	r3, r2, #7
 8000d2c:	1d11      	adds	r1, r2, #4
 8000d2e:	2b04      	cmp	r3, #4
 8000d30:	bf28      	it	cs
 8000d32:	2304      	movcs	r3, #4
 8000d34:	2906      	cmp	r1, #6
 8000d36:	f04f 31ff 	mov.w	r1, #4294967295	; 0xffffffff
 8000d3a:	fa01 f303 	lsl.w	r3, r1, r3
 8000d3e:	bf8c      	ite	hi
 8000d40:	3a03      	subhi	r2, #3
 8000d42:	2200      	movls	r2, #0
 8000d44:	ea24 0303 	bic.w	r3, r4, r3
 8000d48:	4093      	lsls	r3, r2
 8000d4a:	fa01 f202 	lsl.w	r2, r1, r2
 8000d4e:	ea26 0602 	bic.w	r6, r6, r2
 8000d52:	2d00      	cmp	r5, #0
 8000d54:	ea43 0306 	orr.w	r3, r3, r6
 8000d58:	bfa8      	it	ge
 8000d5a:	f105 4560 	addge.w	r5, r5, #3758096384	; 0xe0000000
 8000d5e:	ea4f 1303 	mov.w	r3, r3, lsl #4
 8000d62:	bfbc      	itt	lt
 8000d64:	f005 050f 	andlt.w	r5, r5, #15
 8000d68:	4a06      	ldrlt	r2, [pc, #24]	; (8000d84 <HAL_NVIC_SetPriority+0x84>)
 8000d6a:	b2db      	uxtb	r3, r3
 8000d6c:	bfaa      	itet	ge
 8000d6e:	f505 4561 	addge.w	r5, r5, #57600	; 0xe100
 8000d72:	5553      	strblt	r3, [r2, r5]
 8000d74:	f885 3300 	strbge.w	r3, [r5, #768]	; 0x300
 8000d78:	bd70      	pop	{r4, r5, r6, pc}
 8000d7a:	bf00      	nop
 8000d7c:	08003944 	.word	0x08003944
 8000d80:	e000ed00 	.word	0xe000ed00
 8000d84:	e000ed14 	.word	0xe000ed14

08000d88 <HAL_NVIC_EnableIRQ>:
 8000d88:	2800      	cmp	r0, #0
 8000d8a:	da03      	bge.n	8000d94 <HAL_NVIC_EnableIRQ+0xc>
 8000d8c:	21be      	movs	r1, #190	; 0xbe
 8000d8e:	4806      	ldr	r0, [pc, #24]	; (8000da8 <HAL_NVIC_EnableIRQ+0x20>)
 8000d90:	f7ff be39 	b.w	8000a06 <assert_failed>
 8000d94:	0942      	lsrs	r2, r0, #5
 8000d96:	2301      	movs	r3, #1
 8000d98:	f000 001f 	and.w	r0, r0, #31
 8000d9c:	fa03 f000 	lsl.w	r0, r3, r0
 8000da0:	4b02      	ldr	r3, [pc, #8]	; (8000dac <HAL_NVIC_EnableIRQ+0x24>)
 8000da2:	f843 0022 	str.w	r0, [r3, r2, lsl #2]
 8000da6:	4770      	bx	lr
 8000da8:	08003944 	.word	0x08003944
 8000dac:	e000e100 	.word	0xe000e100

08000db0 <HAL_SYSTICK_Config>:
 8000db0:	3801      	subs	r0, #1
 8000db2:	f1b0 7f80 	cmp.w	r0, #16777216	; 0x1000000
 8000db6:	d20a      	bcs.n	8000dce <HAL_SYSTICK_Config+0x1e>
 8000db8:	4b06      	ldr	r3, [pc, #24]	; (8000dd4 <HAL_SYSTICK_Config+0x24>)
 8000dba:	4a07      	ldr	r2, [pc, #28]	; (8000dd8 <HAL_SYSTICK_Config+0x28>)
 8000dbc:	6058      	str	r0, [r3, #4]
 8000dbe:	21f0      	movs	r1, #240	; 0xf0
 8000dc0:	f882 1023 	strb.w	r1, [r2, #35]	; 0x23
 8000dc4:	2000      	movs	r0, #0
 8000dc6:	2207      	movs	r2, #7
 8000dc8:	6098      	str	r0, [r3, #8]
 8000dca:	601a      	str	r2, [r3, #0]
 8000dcc:	4770      	bx	lr
 8000dce:	2001      	movs	r0, #1
 8000dd0:	4770      	bx	lr
 8000dd2:	bf00      	nop
 8000dd4:	e000e010 	.word	0xe000e010
 8000dd8:	e000ed00 	.word	0xe000ed00

08000ddc <DMA_CalcBaseAndBitshift>:
 8000ddc:	6803      	ldr	r3, [r0, #0]
 8000dde:	b2da      	uxtb	r2, r3
 8000de0:	f423 737f 	bic.w	r3, r3, #1020	; 0x3fc
 8000de4:	f023 0303 	bic.w	r3, r3, #3
 8000de8:	2118      	movs	r1, #24
 8000dea:	3a10      	subs	r2, #16
 8000dec:	fbb2 f2f1 	udiv	r2, r2, r1
 8000df0:	4904      	ldr	r1, [pc, #16]	; (8000e04 <DMA_CalcBaseAndBitshift+0x28>)
 8000df2:	2a03      	cmp	r2, #3
 8000df4:	bf88      	it	hi
 8000df6:	3304      	addhi	r3, #4
 8000df8:	5c89      	ldrb	r1, [r1, r2]
 8000dfa:	6583      	str	r3, [r0, #88]	; 0x58
 8000dfc:	65c1      	str	r1, [r0, #92]	; 0x5c
 8000dfe:	6d80      	ldr	r0, [r0, #88]	; 0x58
 8000e00:	4770      	bx	lr
 8000e02:	bf00      	nop
 8000e04:	080039b7 	.word	0x080039b7

08000e08 <HAL_DMA_Init>:
 8000e08:	b570      	push	{r4, r5, r6, lr}
 8000e0a:	4604      	mov	r4, r0
 8000e0c:	f7ff ff54 	bl	8000cb8 <HAL_GetTick>
 8000e10:	4605      	mov	r5, r0
 8000e12:	2c00      	cmp	r4, #0
 8000e14:	f000 8117 	beq.w	8001046 <HAL_DMA_Init+0x23e>
 8000e18:	6823      	ldr	r3, [r4, #0]
 8000e1a:	4a8c      	ldr	r2, [pc, #560]	; (800104c <HAL_DMA_Init+0x244>)
 8000e1c:	4293      	cmp	r3, r2
 8000e1e:	d031      	beq.n	8000e84 <HAL_DMA_Init+0x7c>
 8000e20:	3218      	adds	r2, #24
 8000e22:	4293      	cmp	r3, r2
 8000e24:	d02e      	beq.n	8000e84 <HAL_DMA_Init+0x7c>
 8000e26:	3218      	adds	r2, #24
 8000e28:	4293      	cmp	r3, r2
 8000e2a:	d02b      	beq.n	8000e84 <HAL_DMA_Init+0x7c>
 8000e2c:	3218      	adds	r2, #24
 8000e2e:	4293      	cmp	r3, r2
 8000e30:	d028      	beq.n	8000e84 <HAL_DMA_Init+0x7c>
 8000e32:	3218      	adds	r2, #24
 8000e34:	4293      	cmp	r3, r2
 8000e36:	d025      	beq.n	8000e84 <HAL_DMA_Init+0x7c>
 8000e38:	3218      	adds	r2, #24
 8000e3a:	4293      	cmp	r3, r2
 8000e3c:	d022      	beq.n	8000e84 <HAL_DMA_Init+0x7c>
 8000e3e:	3218      	adds	r2, #24
 8000e40:	4293      	cmp	r3, r2
 8000e42:	d01f      	beq.n	8000e84 <HAL_DMA_Init+0x7c>
 8000e44:	3218      	adds	r2, #24
 8000e46:	4293      	cmp	r3, r2
 8000e48:	d01c      	beq.n	8000e84 <HAL_DMA_Init+0x7c>
 8000e4a:	f502 7256 	add.w	r2, r2, #856	; 0x358
 8000e4e:	4293      	cmp	r3, r2
 8000e50:	d018      	beq.n	8000e84 <HAL_DMA_Init+0x7c>
 8000e52:	3218      	adds	r2, #24
 8000e54:	4293      	cmp	r3, r2
 8000e56:	d015      	beq.n	8000e84 <HAL_DMA_Init+0x7c>
 8000e58:	3218      	adds	r2, #24
 8000e5a:	4293      	cmp	r3, r2
 8000e5c:	d012      	beq.n	8000e84 <HAL_DMA_Init+0x7c>
 8000e5e:	3218      	adds	r2, #24
 8000e60:	4293      	cmp	r3, r2
 8000e62:	d00f      	beq.n	8000e84 <HAL_DMA_Init+0x7c>
 8000e64:	3218      	adds	r2, #24
 8000e66:	4293      	cmp	r3, r2
 8000e68:	d00c      	beq.n	8000e84 <HAL_DMA_Init+0x7c>
 8000e6a:	3218      	adds	r2, #24
 8000e6c:	4293      	cmp	r3, r2
 8000e6e:	d009      	beq.n	8000e84 <HAL_DMA_Init+0x7c>
 8000e70:	3218      	adds	r2, #24
 8000e72:	4293      	cmp	r3, r2
 8000e74:	d006      	beq.n	8000e84 <HAL_DMA_Init+0x7c>
 8000e76:	3218      	adds	r2, #24
 8000e78:	4293      	cmp	r3, r2
 8000e7a:	d003      	beq.n	8000e84 <HAL_DMA_Init+0x7c>
 8000e7c:	21b8      	movs	r1, #184	; 0xb8
 8000e7e:	4874      	ldr	r0, [pc, #464]	; (8001050 <HAL_DMA_Init+0x248>)
 8000e80:	f7ff fdc1 	bl	8000a06 <assert_failed>
 8000e84:	6863      	ldr	r3, [r4, #4]
 8000e86:	f033 63c0 	bics.w	r3, r3, #100663296	; 0x6000000
 8000e8a:	d006      	beq.n	8000e9a <HAL_DMA_Init+0x92>
 8000e8c:	f1b3 6f00 	cmp.w	r3, #134217728	; 0x8000000
 8000e90:	d003      	beq.n	8000e9a <HAL_DMA_Init+0x92>
 8000e92:	21b9      	movs	r1, #185	; 0xb9
 8000e94:	486e      	ldr	r0, [pc, #440]	; (8001050 <HAL_DMA_Init+0x248>)
 8000e96:	f7ff fdb6 	bl	8000a06 <assert_failed>
 8000e9a:	68a3      	ldr	r3, [r4, #8]
 8000e9c:	f033 0240 	bics.w	r2, r3, #64	; 0x40
 8000ea0:	d005      	beq.n	8000eae <HAL_DMA_Init+0xa6>
 8000ea2:	2b80      	cmp	r3, #128	; 0x80
 8000ea4:	d003      	beq.n	8000eae <HAL_DMA_Init+0xa6>
 8000ea6:	21ba      	movs	r1, #186	; 0xba
 8000ea8:	4869      	ldr	r0, [pc, #420]	; (8001050 <HAL_DMA_Init+0x248>)
 8000eaa:	f7ff fdac 	bl	8000a06 <assert_failed>
 8000eae:	68e3      	ldr	r3, [r4, #12]
 8000eb0:	f433 7300 	bics.w	r3, r3, #512	; 0x200
 8000eb4:	d003      	beq.n	8000ebe <HAL_DMA_Init+0xb6>
 8000eb6:	21bb      	movs	r1, #187	; 0xbb
 8000eb8:	4865      	ldr	r0, [pc, #404]	; (8001050 <HAL_DMA_Init+0x248>)
 8000eba:	f7ff fda4 	bl	8000a06 <assert_failed>
 8000ebe:	6923      	ldr	r3, [r4, #16]
 8000ec0:	f433 6380 	bics.w	r3, r3, #1024	; 0x400
 8000ec4:	d003      	beq.n	8000ece <HAL_DMA_Init+0xc6>
 8000ec6:	21bc      	movs	r1, #188	; 0xbc
 8000ec8:	4861      	ldr	r0, [pc, #388]	; (8001050 <HAL_DMA_Init+0x248>)
 8000eca:	f7ff fd9c 	bl	8000a06 <assert_failed>
 8000ece:	6963      	ldr	r3, [r4, #20]
 8000ed0:	f433 6200 	bics.w	r2, r3, #2048	; 0x800
 8000ed4:	d006      	beq.n	8000ee4 <HAL_DMA_Init+0xdc>
 8000ed6:	f5b3 5f80 	cmp.w	r3, #4096	; 0x1000
 8000eda:	d003      	beq.n	8000ee4 <HAL_DMA_Init+0xdc>
 8000edc:	21bd      	movs	r1, #189	; 0xbd
 8000ede:	485c      	ldr	r0, [pc, #368]	; (8001050 <HAL_DMA_Init+0x248>)
 8000ee0:	f7ff fd91 	bl	8000a06 <assert_failed>
 8000ee4:	69a3      	ldr	r3, [r4, #24]
 8000ee6:	f433 5200 	bics.w	r2, r3, #8192	; 0x2000
 8000eea:	d006      	beq.n	8000efa <HAL_DMA_Init+0xf2>
 8000eec:	f5b3 4f80 	cmp.w	r3, #16384	; 0x4000
 8000ef0:	d003      	beq.n	8000efa <HAL_DMA_Init+0xf2>
 8000ef2:	21be      	movs	r1, #190	; 0xbe
 8000ef4:	4856      	ldr	r0, [pc, #344]	; (8001050 <HAL_DMA_Init+0x248>)
 8000ef6:	f7ff fd86 	bl	8000a06 <assert_failed>
 8000efa:	69e3      	ldr	r3, [r4, #28]
 8000efc:	f033 0220 	bics.w	r2, r3, #32
 8000f00:	d006      	beq.n	8000f10 <HAL_DMA_Init+0x108>
 8000f02:	f5b3 7f80 	cmp.w	r3, #256	; 0x100
 8000f06:	d003      	beq.n	8000f10 <HAL_DMA_Init+0x108>
 8000f08:	21bf      	movs	r1, #191	; 0xbf
 8000f0a:	4851      	ldr	r0, [pc, #324]	; (8001050 <HAL_DMA_Init+0x248>)
 8000f0c:	f7ff fd7b 	bl	8000a06 <assert_failed>
 8000f10:	6a23      	ldr	r3, [r4, #32]
 8000f12:	f433 3340 	bics.w	r3, r3, #196608	; 0x30000
 8000f16:	d003      	beq.n	8000f20 <HAL_DMA_Init+0x118>
 8000f18:	21c0      	movs	r1, #192	; 0xc0
 8000f1a:	484d      	ldr	r0, [pc, #308]	; (8001050 <HAL_DMA_Init+0x248>)
 8000f1c:	f7ff fd73 	bl	8000a06 <assert_failed>
 8000f20:	6a63      	ldr	r3, [r4, #36]	; 0x24
 8000f22:	f033 0304 	bics.w	r3, r3, #4
 8000f26:	d003      	beq.n	8000f30 <HAL_DMA_Init+0x128>
 8000f28:	21c1      	movs	r1, #193	; 0xc1
 8000f2a:	4849      	ldr	r0, [pc, #292]	; (8001050 <HAL_DMA_Init+0x248>)
 8000f2c:	f7ff fd6b 	bl	8000a06 <assert_failed>
 8000f30:	6a63      	ldr	r3, [r4, #36]	; 0x24
 8000f32:	b1b3      	cbz	r3, 8000f62 <HAL_DMA_Init+0x15a>
 8000f34:	6aa3      	ldr	r3, [r4, #40]	; 0x28
 8000f36:	2b03      	cmp	r3, #3
 8000f38:	d903      	bls.n	8000f42 <HAL_DMA_Init+0x13a>
 8000f3a:	21c6      	movs	r1, #198	; 0xc6
 8000f3c:	4844      	ldr	r0, [pc, #272]	; (8001050 <HAL_DMA_Init+0x248>)
 8000f3e:	f7ff fd62 	bl	8000a06 <assert_failed>
 8000f42:	6ae3      	ldr	r3, [r4, #44]	; 0x2c
 8000f44:	f033 73c0 	bics.w	r3, r3, #25165824	; 0x1800000
 8000f48:	d003      	beq.n	8000f52 <HAL_DMA_Init+0x14a>
 8000f4a:	21c7      	movs	r1, #199	; 0xc7
 8000f4c:	4840      	ldr	r0, [pc, #256]	; (8001050 <HAL_DMA_Init+0x248>)
 8000f4e:	f7ff fd5a 	bl	8000a06 <assert_failed>
 8000f52:	6b23      	ldr	r3, [r4, #48]	; 0x30
 8000f54:	f433 03c0 	bics.w	r3, r3, #6291456	; 0x600000
 8000f58:	d003      	beq.n	8000f62 <HAL_DMA_Init+0x15a>
 8000f5a:	21c8      	movs	r1, #200	; 0xc8
 8000f5c:	483c      	ldr	r0, [pc, #240]	; (8001050 <HAL_DMA_Init+0x248>)
 8000f5e:	f7ff fd52 	bl	8000a06 <assert_failed>
 8000f62:	2300      	movs	r3, #0
 8000f64:	f884 3034 	strb.w	r3, [r4, #52]	; 0x34
 8000f68:	6822      	ldr	r2, [r4, #0]
 8000f6a:	2302      	movs	r3, #2
 8000f6c:	f884 3035 	strb.w	r3, [r4, #53]	; 0x35
 8000f70:	6813      	ldr	r3, [r2, #0]
 8000f72:	f023 0301 	bic.w	r3, r3, #1
 8000f76:	6013      	str	r3, [r2, #0]
 8000f78:	6821      	ldr	r1, [r4, #0]
 8000f7a:	680b      	ldr	r3, [r1, #0]
 8000f7c:	07d8      	lsls	r0, r3, #31
 8000f7e:	d43c      	bmi.n	8000ffa <HAL_DMA_Init+0x1f2>
 8000f80:	680b      	ldr	r3, [r1, #0]
 8000f82:	4d34      	ldr	r5, [pc, #208]	; (8001054 <HAL_DMA_Init+0x24c>)
 8000f84:	69a0      	ldr	r0, [r4, #24]
 8000f86:	401d      	ands	r5, r3
 8000f88:	e9d4 2301 	ldrd	r2, r3, [r4, #4]
 8000f8c:	4313      	orrs	r3, r2
 8000f8e:	68e2      	ldr	r2, [r4, #12]
 8000f90:	4313      	orrs	r3, r2
 8000f92:	6922      	ldr	r2, [r4, #16]
 8000f94:	4313      	orrs	r3, r2
 8000f96:	6962      	ldr	r2, [r4, #20]
 8000f98:	4313      	orrs	r3, r2
 8000f9a:	69e2      	ldr	r2, [r4, #28]
 8000f9c:	4303      	orrs	r3, r0
 8000f9e:	4313      	orrs	r3, r2
 8000fa0:	6a22      	ldr	r2, [r4, #32]
 8000fa2:	4313      	orrs	r3, r2
 8000fa4:	6a62      	ldr	r2, [r4, #36]	; 0x24
 8000fa6:	2a04      	cmp	r2, #4
 8000fa8:	ea43 0305 	orr.w	r3, r3, r5
 8000fac:	bf02      	ittt	eq
 8000fae:	e9d4 560b 	ldrdeq	r5, r6, [r4, #44]	; 0x2c
 8000fb2:	4335      	orreq	r5, r6
 8000fb4:	432b      	orreq	r3, r5
 8000fb6:	600b      	str	r3, [r1, #0]
 8000fb8:	694b      	ldr	r3, [r1, #20]
 8000fba:	2a04      	cmp	r2, #4
 8000fbc:	f023 0307 	bic.w	r3, r3, #7
 8000fc0:	ea43 0302 	orr.w	r3, r3, r2
 8000fc4:	d10b      	bne.n	8000fde <HAL_DMA_Init+0x1d6>
 8000fc6:	6aa2      	ldr	r2, [r4, #40]	; 0x28
 8000fc8:	6ae5      	ldr	r5, [r4, #44]	; 0x2c
 8000fca:	4313      	orrs	r3, r2
 8000fcc:	b13d      	cbz	r5, 8000fde <HAL_DMA_Init+0x1d6>
 8000fce:	b9f8      	cbnz	r0, 8001010 <HAL_DMA_Init+0x208>
 8000fd0:	2a01      	cmp	r2, #1
 8000fd2:	d02d      	beq.n	8001030 <HAL_DMA_Init+0x228>
 8000fd4:	d301      	bcc.n	8000fda <HAL_DMA_Init+0x1d2>
 8000fd6:	2a02      	cmp	r2, #2
 8000fd8:	d101      	bne.n	8000fde <HAL_DMA_Init+0x1d6>
 8000fda:	01ea      	lsls	r2, r5, #7
 8000fdc:	d42b      	bmi.n	8001036 <HAL_DMA_Init+0x22e>
 8000fde:	614b      	str	r3, [r1, #20]
 8000fe0:	4620      	mov	r0, r4
 8000fe2:	f7ff fefb 	bl	8000ddc <DMA_CalcBaseAndBitshift>
 8000fe6:	6de2      	ldr	r2, [r4, #92]	; 0x5c
 8000fe8:	233f      	movs	r3, #63	; 0x3f
 8000fea:	4093      	lsls	r3, r2
 8000fec:	6083      	str	r3, [r0, #8]
 8000fee:	2000      	movs	r0, #0
 8000ff0:	2301      	movs	r3, #1
 8000ff2:	6560      	str	r0, [r4, #84]	; 0x54
 8000ff4:	f884 3035 	strb.w	r3, [r4, #53]	; 0x35
 8000ff8:	e009      	b.n	800100e <HAL_DMA_Init+0x206>
 8000ffa:	f7ff fe5d 	bl	8000cb8 <HAL_GetTick>
 8000ffe:	1b40      	subs	r0, r0, r5
 8001000:	2805      	cmp	r0, #5
 8001002:	d9b9      	bls.n	8000f78 <HAL_DMA_Init+0x170>
 8001004:	2320      	movs	r3, #32
 8001006:	6563      	str	r3, [r4, #84]	; 0x54
 8001008:	2003      	movs	r0, #3
 800100a:	f884 0035 	strb.w	r0, [r4, #53]	; 0x35
 800100e:	bd70      	pop	{r4, r5, r6, pc}
 8001010:	f5b0 5f00 	cmp.w	r0, #8192	; 0x2000
 8001014:	d113      	bne.n	800103e <HAL_DMA_Init+0x236>
 8001016:	2a03      	cmp	r2, #3
 8001018:	d8e1      	bhi.n	8000fde <HAL_DMA_Init+0x1d6>
 800101a:	a001      	add	r0, pc, #4	; (adr r0, 8001020 <HAL_DMA_Init+0x218>)
 800101c:	f850 f022 	ldr.w	pc, [r0, r2, lsl #2]
 8001020:	08001037 	.word	0x08001037
 8001024:	08000fdb 	.word	0x08000fdb
 8001028:	08001037 	.word	0x08001037
 800102c:	08001031 	.word	0x08001031
 8001030:	f1b5 7fc0 	cmp.w	r5, #25165824	; 0x1800000
 8001034:	d1d3      	bne.n	8000fde <HAL_DMA_Init+0x1d6>
 8001036:	2340      	movs	r3, #64	; 0x40
 8001038:	6563      	str	r3, [r4, #84]	; 0x54
 800103a:	2001      	movs	r0, #1
 800103c:	e7e5      	b.n	800100a <HAL_DMA_Init+0x202>
 800103e:	2a02      	cmp	r2, #2
 8001040:	d9f9      	bls.n	8001036 <HAL_DMA_Init+0x22e>
 8001042:	2a03      	cmp	r2, #3
 8001044:	e7c8      	b.n	8000fd8 <HAL_DMA_Init+0x1d0>
 8001046:	2001      	movs	r0, #1
 8001048:	e7e1      	b.n	800100e <HAL_DMA_Init+0x206>
 800104a:	bf00      	nop
 800104c:	40026010 	.word	0x40026010
 8001050:	0800397f 	.word	0x0800397f
 8001054:	f010803f 	.word	0xf010803f

08001058 <HAL_DMA_Start_IT>:
 8001058:	e92d 41f0 	stmdb	sp!, {r4, r5, r6, r7, r8, lr}
 800105c:	4617      	mov	r7, r2
 800105e:	4698      	mov	r8, r3
 8001060:	1e5a      	subs	r2, r3, #1
 8001062:	f64f 73fe 	movw	r3, #65534	; 0xfffe
 8001066:	429a      	cmp	r2, r3
 8001068:	4604      	mov	r4, r0
 800106a:	460d      	mov	r5, r1
 800106c:	6d86      	ldr	r6, [r0, #88]	; 0x58
 800106e:	d904      	bls.n	800107a <HAL_DMA_Start_IT+0x22>
 8001070:	f44f 71e6 	mov.w	r1, #460	; 0x1cc
 8001074:	481f      	ldr	r0, [pc, #124]	; (80010f4 <HAL_DMA_Start_IT+0x9c>)
 8001076:	f7ff fcc6 	bl	8000a06 <assert_failed>
 800107a:	f894 3034 	ldrb.w	r3, [r4, #52]	; 0x34
 800107e:	2b01      	cmp	r3, #1
 8001080:	d035      	beq.n	80010ee <HAL_DMA_Start_IT+0x96>
 8001082:	2301      	movs	r3, #1
 8001084:	f884 3034 	strb.w	r3, [r4, #52]	; 0x34
 8001088:	f894 3035 	ldrb.w	r3, [r4, #53]	; 0x35
 800108c:	2b01      	cmp	r3, #1
 800108e:	f04f 0002 	mov.w	r0, #2
 8001092:	f04f 0100 	mov.w	r1, #0
 8001096:	d127      	bne.n	80010e8 <HAL_DMA_Start_IT+0x90>
 8001098:	f884 0035 	strb.w	r0, [r4, #53]	; 0x35
 800109c:	6561      	str	r1, [r4, #84]	; 0x54
 800109e:	6821      	ldr	r1, [r4, #0]
 80010a0:	68a3      	ldr	r3, [r4, #8]
 80010a2:	6808      	ldr	r0, [r1, #0]
 80010a4:	6de2      	ldr	r2, [r4, #92]	; 0x5c
 80010a6:	2b40      	cmp	r3, #64	; 0x40
 80010a8:	f04f 033f 	mov.w	r3, #63	; 0x3f
 80010ac:	fa03 f302 	lsl.w	r3, r3, r2
 80010b0:	f420 2080 	bic.w	r0, r0, #262144	; 0x40000
 80010b4:	6008      	str	r0, [r1, #0]
 80010b6:	f8c1 8004 	str.w	r8, [r1, #4]
 80010ba:	bf0b      	itete	eq
 80010bc:	608f      	streq	r7, [r1, #8]
 80010be:	608d      	strne	r5, [r1, #8]
 80010c0:	60cd      	streq	r5, [r1, #12]
 80010c2:	60cf      	strne	r7, [r1, #12]
 80010c4:	60b3      	str	r3, [r6, #8]
 80010c6:	680b      	ldr	r3, [r1, #0]
 80010c8:	f043 0316 	orr.w	r3, r3, #22
 80010cc:	600b      	str	r3, [r1, #0]
 80010ce:	6c23      	ldr	r3, [r4, #64]	; 0x40
 80010d0:	b11b      	cbz	r3, 80010da <HAL_DMA_Start_IT+0x82>
 80010d2:	680b      	ldr	r3, [r1, #0]
 80010d4:	f043 0308 	orr.w	r3, r3, #8
 80010d8:	600b      	str	r3, [r1, #0]
 80010da:	680b      	ldr	r3, [r1, #0]
 80010dc:	f043 0301 	orr.w	r3, r3, #1
 80010e0:	600b      	str	r3, [r1, #0]
 80010e2:	2000      	movs	r0, #0
 80010e4:	e8bd 81f0 	ldmia.w	sp!, {r4, r5, r6, r7, r8, pc}
 80010e8:	f884 1034 	strb.w	r1, [r4, #52]	; 0x34
 80010ec:	e7fa      	b.n	80010e4 <HAL_DMA_Start_IT+0x8c>
 80010ee:	2002      	movs	r0, #2
 80010f0:	e7f8      	b.n	80010e4 <HAL_DMA_Start_IT+0x8c>
 80010f2:	bf00      	nop
 80010f4:	0800397f 	.word	0x0800397f

080010f8 <HAL_DMA_Abort_IT>:
 80010f8:	f890 3035 	ldrb.w	r3, [r0, #53]	; 0x35
 80010fc:	2b02      	cmp	r3, #2
 80010fe:	d003      	beq.n	8001108 <HAL_DMA_Abort_IT+0x10>
 8001100:	2380      	movs	r3, #128	; 0x80
 8001102:	6543      	str	r3, [r0, #84]	; 0x54
 8001104:	2001      	movs	r0, #1
 8001106:	4770      	bx	lr
 8001108:	6802      	ldr	r2, [r0, #0]
 800110a:	2305      	movs	r3, #5
 800110c:	f880 3035 	strb.w	r3, [r0, #53]	; 0x35
 8001110:	6813      	ldr	r3, [r2, #0]
 8001112:	f023 0301 	bic.w	r3, r3, #1
 8001116:	6013      	str	r3, [r2, #0]
 8001118:	2000      	movs	r0, #0
 800111a:	4770      	bx	lr

0800111c <HAL_DMA_IRQHandler>:
 800111c:	b5f7      	push	{r0, r1, r2, r4, r5, r6, r7, lr}
 800111e:	2300      	movs	r3, #0
 8001120:	9301      	str	r3, [sp, #4]
 8001122:	4b5c      	ldr	r3, [pc, #368]	; (8001294 <HAL_DMA_IRQHandler+0x178>)
 8001124:	6d85      	ldr	r5, [r0, #88]	; 0x58
 8001126:	681f      	ldr	r7, [r3, #0]
 8001128:	6dc3      	ldr	r3, [r0, #92]	; 0x5c
 800112a:	682e      	ldr	r6, [r5, #0]
 800112c:	2208      	movs	r2, #8
 800112e:	409a      	lsls	r2, r3
 8001130:	4232      	tst	r2, r6
 8001132:	4604      	mov	r4, r0
 8001134:	d00c      	beq.n	8001150 <HAL_DMA_IRQHandler+0x34>
 8001136:	6801      	ldr	r1, [r0, #0]
 8001138:	6808      	ldr	r0, [r1, #0]
 800113a:	0740      	lsls	r0, r0, #29
 800113c:	d508      	bpl.n	8001150 <HAL_DMA_IRQHandler+0x34>
 800113e:	6808      	ldr	r0, [r1, #0]
 8001140:	f020 0004 	bic.w	r0, r0, #4
 8001144:	6008      	str	r0, [r1, #0]
 8001146:	60aa      	str	r2, [r5, #8]
 8001148:	6d62      	ldr	r2, [r4, #84]	; 0x54
 800114a:	f042 0201 	orr.w	r2, r2, #1
 800114e:	6562      	str	r2, [r4, #84]	; 0x54
 8001150:	2201      	movs	r2, #1
 8001152:	409a      	lsls	r2, r3
 8001154:	4232      	tst	r2, r6
 8001156:	d008      	beq.n	800116a <HAL_DMA_IRQHandler+0x4e>
 8001158:	6821      	ldr	r1, [r4, #0]
 800115a:	6949      	ldr	r1, [r1, #20]
 800115c:	0609      	lsls	r1, r1, #24
 800115e:	bf41      	itttt	mi
 8001160:	60aa      	strmi	r2, [r5, #8]
 8001162:	6d62      	ldrmi	r2, [r4, #84]	; 0x54
 8001164:	f042 0202 	orrmi.w	r2, r2, #2
 8001168:	6562      	strmi	r2, [r4, #84]	; 0x54
 800116a:	2204      	movs	r2, #4
 800116c:	409a      	lsls	r2, r3
 800116e:	4232      	tst	r2, r6
 8001170:	d008      	beq.n	8001184 <HAL_DMA_IRQHandler+0x68>
 8001172:	6821      	ldr	r1, [r4, #0]
 8001174:	6809      	ldr	r1, [r1, #0]
 8001176:	0788      	lsls	r0, r1, #30
 8001178:	bf41      	itttt	mi
 800117a:	60aa      	strmi	r2, [r5, #8]
 800117c:	6d62      	ldrmi	r2, [r4, #84]	; 0x54
 800117e:	f042 0204 	orrmi.w	r2, r2, #4
 8001182:	6562      	strmi	r2, [r4, #84]	; 0x54
 8001184:	2210      	movs	r2, #16
 8001186:	409a      	lsls	r2, r3
 8001188:	4232      	tst	r2, r6
 800118a:	d010      	beq.n	80011ae <HAL_DMA_IRQHandler+0x92>
 800118c:	6823      	ldr	r3, [r4, #0]
 800118e:	6819      	ldr	r1, [r3, #0]
 8001190:	0709      	lsls	r1, r1, #28
 8001192:	d50c      	bpl.n	80011ae <HAL_DMA_IRQHandler+0x92>
 8001194:	60aa      	str	r2, [r5, #8]
 8001196:	681a      	ldr	r2, [r3, #0]
 8001198:	0350      	lsls	r0, r2, #13
 800119a:	d537      	bpl.n	800120c <HAL_DMA_IRQHandler+0xf0>
 800119c:	681b      	ldr	r3, [r3, #0]
 800119e:	0319      	lsls	r1, r3, #12
 80011a0:	d401      	bmi.n	80011a6 <HAL_DMA_IRQHandler+0x8a>
 80011a2:	6c23      	ldr	r3, [r4, #64]	; 0x40
 80011a4:	e000      	b.n	80011a8 <HAL_DMA_IRQHandler+0x8c>
 80011a6:	6ca3      	ldr	r3, [r4, #72]	; 0x48
 80011a8:	b10b      	cbz	r3, 80011ae <HAL_DMA_IRQHandler+0x92>
 80011aa:	4620      	mov	r0, r4
 80011ac:	4798      	blx	r3
 80011ae:	6de1      	ldr	r1, [r4, #92]	; 0x5c
 80011b0:	2220      	movs	r2, #32
 80011b2:	408a      	lsls	r2, r1
 80011b4:	4232      	tst	r2, r6
 80011b6:	d03a      	beq.n	800122e <HAL_DMA_IRQHandler+0x112>
 80011b8:	6823      	ldr	r3, [r4, #0]
 80011ba:	6818      	ldr	r0, [r3, #0]
 80011bc:	06c6      	lsls	r6, r0, #27
 80011be:	d536      	bpl.n	800122e <HAL_DMA_IRQHandler+0x112>
 80011c0:	60aa      	str	r2, [r5, #8]
 80011c2:	f894 2035 	ldrb.w	r2, [r4, #53]	; 0x35
 80011c6:	2a05      	cmp	r2, #5
 80011c8:	681a      	ldr	r2, [r3, #0]
 80011ca:	d127      	bne.n	800121c <HAL_DMA_IRQHandler+0x100>
 80011cc:	f022 0216 	bic.w	r2, r2, #22
 80011d0:	601a      	str	r2, [r3, #0]
 80011d2:	695a      	ldr	r2, [r3, #20]
 80011d4:	f022 0280 	bic.w	r2, r2, #128	; 0x80
 80011d8:	615a      	str	r2, [r3, #20]
 80011da:	6c22      	ldr	r2, [r4, #64]	; 0x40
 80011dc:	b90a      	cbnz	r2, 80011e2 <HAL_DMA_IRQHandler+0xc6>
 80011de:	6ca2      	ldr	r2, [r4, #72]	; 0x48
 80011e0:	b11a      	cbz	r2, 80011ea <HAL_DMA_IRQHandler+0xce>
 80011e2:	681a      	ldr	r2, [r3, #0]
 80011e4:	f022 0208 	bic.w	r2, r2, #8
 80011e8:	601a      	str	r2, [r3, #0]
 80011ea:	233f      	movs	r3, #63	; 0x3f
 80011ec:	408b      	lsls	r3, r1
 80011ee:	60ab      	str	r3, [r5, #8]
 80011f0:	2300      	movs	r3, #0
 80011f2:	f884 3034 	strb.w	r3, [r4, #52]	; 0x34
 80011f6:	2301      	movs	r3, #1
 80011f8:	f884 3035 	strb.w	r3, [r4, #53]	; 0x35
 80011fc:	6d23      	ldr	r3, [r4, #80]	; 0x50
 80011fe:	2b00      	cmp	r3, #0
 8001200:	d045      	beq.n	800128e <HAL_DMA_IRQHandler+0x172>
 8001202:	4620      	mov	r0, r4
 8001204:	b003      	add	sp, #12
 8001206:	e8bd 40f0 	ldmia.w	sp!, {r4, r5, r6, r7, lr}
 800120a:	4718      	bx	r3
 800120c:	681a      	ldr	r2, [r3, #0]
 800120e:	05d2      	lsls	r2, r2, #23
 8001210:	bf5e      	ittt	pl
 8001212:	681a      	ldrpl	r2, [r3, #0]
 8001214:	f022 0208 	bicpl.w	r2, r2, #8
 8001218:	601a      	strpl	r2, [r3, #0]
 800121a:	e7c2      	b.n	80011a2 <HAL_DMA_IRQHandler+0x86>
 800121c:	0350      	lsls	r0, r2, #13
 800121e:	d527      	bpl.n	8001270 <HAL_DMA_IRQHandler+0x154>
 8001220:	681b      	ldr	r3, [r3, #0]
 8001222:	0319      	lsls	r1, r3, #12
 8001224:	d431      	bmi.n	800128a <HAL_DMA_IRQHandler+0x16e>
 8001226:	6c63      	ldr	r3, [r4, #68]	; 0x44
 8001228:	b10b      	cbz	r3, 800122e <HAL_DMA_IRQHandler+0x112>
 800122a:	4620      	mov	r0, r4
 800122c:	4798      	blx	r3
 800122e:	6d63      	ldr	r3, [r4, #84]	; 0x54
 8001230:	b36b      	cbz	r3, 800128e <HAL_DMA_IRQHandler+0x172>
 8001232:	6d63      	ldr	r3, [r4, #84]	; 0x54
 8001234:	07da      	lsls	r2, r3, #31
 8001236:	d519      	bpl.n	800126c <HAL_DMA_IRQHandler+0x150>
 8001238:	2305      	movs	r3, #5
 800123a:	6822      	ldr	r2, [r4, #0]
 800123c:	f884 3035 	strb.w	r3, [r4, #53]	; 0x35
 8001240:	6813      	ldr	r3, [r2, #0]
 8001242:	f023 0301 	bic.w	r3, r3, #1
 8001246:	6013      	str	r3, [r2, #0]
 8001248:	f44f 5316 	mov.w	r3, #9600	; 0x2580
 800124c:	fbb7 f7f3 	udiv	r7, r7, r3
 8001250:	9b01      	ldr	r3, [sp, #4]
 8001252:	3301      	adds	r3, #1
 8001254:	42bb      	cmp	r3, r7
 8001256:	9301      	str	r3, [sp, #4]
 8001258:	d802      	bhi.n	8001260 <HAL_DMA_IRQHandler+0x144>
 800125a:	6813      	ldr	r3, [r2, #0]
 800125c:	07db      	lsls	r3, r3, #31
 800125e:	d4f7      	bmi.n	8001250 <HAL_DMA_IRQHandler+0x134>
 8001260:	2300      	movs	r3, #0
 8001262:	f884 3034 	strb.w	r3, [r4, #52]	; 0x34
 8001266:	2301      	movs	r3, #1
 8001268:	f884 3035 	strb.w	r3, [r4, #53]	; 0x35
 800126c:	6ce3      	ldr	r3, [r4, #76]	; 0x4c
 800126e:	e7c6      	b.n	80011fe <HAL_DMA_IRQHandler+0xe2>
 8001270:	681a      	ldr	r2, [r3, #0]
 8001272:	f412 7280 	ands.w	r2, r2, #256	; 0x100
 8001276:	d108      	bne.n	800128a <HAL_DMA_IRQHandler+0x16e>
 8001278:	6819      	ldr	r1, [r3, #0]
 800127a:	f021 0110 	bic.w	r1, r1, #16
 800127e:	6019      	str	r1, [r3, #0]
 8001280:	2301      	movs	r3, #1
 8001282:	f884 2034 	strb.w	r2, [r4, #52]	; 0x34
 8001286:	f884 3035 	strb.w	r3, [r4, #53]	; 0x35
 800128a:	6be3      	ldr	r3, [r4, #60]	; 0x3c
 800128c:	e7cc      	b.n	8001228 <HAL_DMA_IRQHandler+0x10c>
 800128e:	b003      	add	sp, #12
 8001290:	bdf0      	pop	{r4, r5, r6, r7, pc}
 8001292:	bf00      	nop
 8001294:	2000000c 	.word	0x2000000c

08001298 <HAL_DMA_GetState>:
 8001298:	f890 0035 	ldrb.w	r0, [r0, #53]	; 0x35
 800129c:	4770      	bx	lr

0800129e <HAL_DMA_GetError>:
 800129e:	6d40      	ldr	r0, [r0, #84]	; 0x54
 80012a0:	4770      	bx	lr
	...

080012a4 <HAL_GPIO_Init>:
 80012a4:	4b90      	ldr	r3, [pc, #576]	; (80014e8 <HAL_GPIO_Init+0x244>)
 80012a6:	4298      	cmp	r0, r3
 80012a8:	e92d 4ff7 	stmdb	sp!, {r0, r1, r2, r4, r5, r6, r7, r8, r9, sl, fp, lr}
 80012ac:	4604      	mov	r4, r0
 80012ae:	460d      	mov	r5, r1
 80012b0:	d017      	beq.n	80012e2 <HAL_GPIO_Init+0x3e>
 80012b2:	f503 6380 	add.w	r3, r3, #1024	; 0x400
 80012b6:	4298      	cmp	r0, r3
 80012b8:	d013      	beq.n	80012e2 <HAL_GPIO_Init+0x3e>
 80012ba:	f503 6380 	add.w	r3, r3, #1024	; 0x400
 80012be:	4298      	cmp	r0, r3
 80012c0:	d00f      	beq.n	80012e2 <HAL_GPIO_Init+0x3e>
 80012c2:	f503 6380 	add.w	r3, r3, #1024	; 0x400
 80012c6:	4298      	cmp	r0, r3
 80012c8:	d00b      	beq.n	80012e2 <HAL_GPIO_Init+0x3e>
 80012ca:	f503 6380 	add.w	r3, r3, #1024	; 0x400
 80012ce:	4298      	cmp	r0, r3
 80012d0:	d007      	beq.n	80012e2 <HAL_GPIO_Init+0x3e>
 80012d2:	f503 6340 	add.w	r3, r3, #3072	; 0xc00
 80012d6:	4298      	cmp	r0, r3
 80012d8:	d003      	beq.n	80012e2 <HAL_GPIO_Init+0x3e>
 80012da:	21b3      	movs	r1, #179	; 0xb3
 80012dc:	4883      	ldr	r0, [pc, #524]	; (80014ec <HAL_GPIO_Init+0x248>)
 80012de:	f7ff fb92 	bl	8000a06 <assert_failed>
 80012e2:	682b      	ldr	r3, [r5, #0]
 80012e4:	b29a      	uxth	r2, r3
 80012e6:	b112      	cbz	r2, 80012ee <HAL_GPIO_Init+0x4a>
 80012e8:	0c1b      	lsrs	r3, r3, #16
 80012ea:	041b      	lsls	r3, r3, #16
 80012ec:	b11b      	cbz	r3, 80012f6 <HAL_GPIO_Init+0x52>
 80012ee:	21b4      	movs	r1, #180	; 0xb4
 80012f0:	487e      	ldr	r0, [pc, #504]	; (80014ec <HAL_GPIO_Init+0x248>)
 80012f2:	f7ff fb88 	bl	8000a06 <assert_failed>
 80012f6:	686b      	ldr	r3, [r5, #4]
 80012f8:	2b03      	cmp	r3, #3
 80012fa:	d917      	bls.n	800132c <HAL_GPIO_Init+0x88>
 80012fc:	f1a3 0211 	sub.w	r2, r3, #17
 8001300:	2a01      	cmp	r2, #1
 8001302:	d913      	bls.n	800132c <HAL_GPIO_Init+0x88>
 8001304:	497a      	ldr	r1, [pc, #488]	; (80014f0 <HAL_GPIO_Init+0x24c>)
 8001306:	f423 1200 	bic.w	r2, r3, #2097152	; 0x200000
 800130a:	428a      	cmp	r2, r1
 800130c:	d00e      	beq.n	800132c <HAL_GPIO_Init+0x88>
 800130e:	f501 1180 	add.w	r1, r1, #1048576	; 0x100000
 8001312:	428b      	cmp	r3, r1
 8001314:	d00a      	beq.n	800132c <HAL_GPIO_Init+0x88>
 8001316:	f5a1 2170 	sub.w	r1, r1, #983040	; 0xf0000
 800131a:	428a      	cmp	r2, r1
 800131c:	d006      	beq.n	800132c <HAL_GPIO_Init+0x88>
 800131e:	4a75      	ldr	r2, [pc, #468]	; (80014f4 <HAL_GPIO_Init+0x250>)
 8001320:	4293      	cmp	r3, r2
 8001322:	d003      	beq.n	800132c <HAL_GPIO_Init+0x88>
 8001324:	21b5      	movs	r1, #181	; 0xb5
 8001326:	4871      	ldr	r0, [pc, #452]	; (80014ec <HAL_GPIO_Init+0x248>)
 8001328:	f7ff fb6d 	bl	8000a06 <assert_failed>
 800132c:	68ab      	ldr	r3, [r5, #8]
 800132e:	2b02      	cmp	r3, #2
 8001330:	d903      	bls.n	800133a <HAL_GPIO_Init+0x96>
 8001332:	21b6      	movs	r1, #182	; 0xb6
 8001334:	486d      	ldr	r0, [pc, #436]	; (80014ec <HAL_GPIO_Init+0x248>)
 8001336:	f7ff fb66 	bl	8000a06 <assert_failed>
 800133a:	f8df 81c4 	ldr.w	r8, [pc, #452]	; 8001500 <HAL_GPIO_Init+0x25c>
 800133e:	4f6e      	ldr	r7, [pc, #440]	; (80014f8 <HAL_GPIO_Init+0x254>)
 8001340:	2600      	movs	r6, #0
 8001342:	f04f 0a01 	mov.w	sl, #1
 8001346:	682b      	ldr	r3, [r5, #0]
 8001348:	fa0a fa06 	lsl.w	sl, sl, r6
 800134c:	ea0a 0903 	and.w	r9, sl, r3
 8001350:	45ca      	cmp	sl, r9
 8001352:	f040 80bc 	bne.w	80014ce <HAL_GPIO_Init+0x22a>
 8001356:	686b      	ldr	r3, [r5, #4]
 8001358:	f023 0310 	bic.w	r3, r3, #16
 800135c:	3b01      	subs	r3, #1
 800135e:	2b01      	cmp	r3, #1
 8001360:	ea4f 0b46 	mov.w	fp, r6, lsl #1
 8001364:	d81b      	bhi.n	800139e <HAL_GPIO_Init+0xfa>
 8001366:	68eb      	ldr	r3, [r5, #12]
 8001368:	2b03      	cmp	r3, #3
 800136a:	d903      	bls.n	8001374 <HAL_GPIO_Init+0xd0>
 800136c:	21c8      	movs	r1, #200	; 0xc8
 800136e:	485f      	ldr	r0, [pc, #380]	; (80014ec <HAL_GPIO_Init+0x248>)
 8001370:	f7ff fb49 	bl	8000a06 <assert_failed>
 8001374:	68a3      	ldr	r3, [r4, #8]
 8001376:	2203      	movs	r2, #3
 8001378:	fa02 f20b 	lsl.w	r2, r2, fp
 800137c:	ea23 0202 	bic.w	r2, r3, r2
 8001380:	68eb      	ldr	r3, [r5, #12]
 8001382:	fa03 f30b 	lsl.w	r3, r3, fp
 8001386:	4313      	orrs	r3, r2
 8001388:	60a3      	str	r3, [r4, #8]
 800138a:	6863      	ldr	r3, [r4, #4]
 800138c:	ea23 0a0a 	bic.w	sl, r3, sl
 8001390:	686b      	ldr	r3, [r5, #4]
 8001392:	f3c3 1300 	ubfx	r3, r3, #4, #1
 8001396:	40b3      	lsls	r3, r6
 8001398:	ea43 030a 	orr.w	r3, r3, sl
 800139c:	6063      	str	r3, [r4, #4]
 800139e:	f04f 0a03 	mov.w	sl, #3
 80013a2:	68e2      	ldr	r2, [r4, #12]
 80013a4:	68ab      	ldr	r3, [r5, #8]
 80013a6:	fa0a fa0b 	lsl.w	sl, sl, fp
 80013aa:	ea6f 0a0a 	mvn.w	sl, sl
 80013ae:	ea0a 0202 	and.w	r2, sl, r2
 80013b2:	fa03 f30b 	lsl.w	r3, r3, fp
 80013b6:	4313      	orrs	r3, r2
 80013b8:	60e3      	str	r3, [r4, #12]
 80013ba:	686b      	ldr	r3, [r5, #4]
 80013bc:	f023 0310 	bic.w	r3, r3, #16
 80013c0:	2b02      	cmp	r3, #2
 80013c2:	d11a      	bne.n	80013fa <HAL_GPIO_Init+0x156>
 80013c4:	692a      	ldr	r2, [r5, #16]
 80013c6:	2a0f      	cmp	r2, #15
 80013c8:	d804      	bhi.n	80013d4 <HAL_GPIO_Init+0x130>
 80013ca:	f249 73f7 	movw	r3, #38903	; 0x97f7
 80013ce:	40d3      	lsrs	r3, r2
 80013d0:	07d9      	lsls	r1, r3, #31
 80013d2:	d403      	bmi.n	80013dc <HAL_GPIO_Init+0x138>
 80013d4:	21e0      	movs	r1, #224	; 0xe0
 80013d6:	4845      	ldr	r0, [pc, #276]	; (80014ec <HAL_GPIO_Init+0x248>)
 80013d8:	f7ff fb15 	bl	8000a06 <assert_failed>
 80013dc:	08f2      	lsrs	r2, r6, #3
 80013de:	eb04 0282 	add.w	r2, r4, r2, lsl #2
 80013e2:	f006 0307 	and.w	r3, r6, #7
 80013e6:	0099      	lsls	r1, r3, #2
 80013e8:	6a10      	ldr	r0, [r2, #32]
 80013ea:	230f      	movs	r3, #15
 80013ec:	408b      	lsls	r3, r1
 80013ee:	ea20 0003 	bic.w	r0, r0, r3
 80013f2:	692b      	ldr	r3, [r5, #16]
 80013f4:	408b      	lsls	r3, r1
 80013f6:	4303      	orrs	r3, r0
 80013f8:	6213      	str	r3, [r2, #32]
 80013fa:	6823      	ldr	r3, [r4, #0]
 80013fc:	6869      	ldr	r1, [r5, #4]
 80013fe:	ea0a 0a03 	and.w	sl, sl, r3
 8001402:	f001 0303 	and.w	r3, r1, #3
 8001406:	fa03 fb0b 	lsl.w	fp, r3, fp
 800140a:	ea4b 030a 	orr.w	r3, fp, sl
 800140e:	00ca      	lsls	r2, r1, #3
 8001410:	6023      	str	r3, [r4, #0]
 8001412:	d55c      	bpl.n	80014ce <HAL_GPIO_Init+0x22a>
 8001414:	4a39      	ldr	r2, [pc, #228]	; (80014fc <HAL_GPIO_Init+0x258>)
 8001416:	2300      	movs	r3, #0
 8001418:	9301      	str	r3, [sp, #4]
 800141a:	6c50      	ldr	r0, [r2, #68]	; 0x44
 800141c:	f440 4080 	orr.w	r0, r0, #16384	; 0x4000
 8001420:	6450      	str	r0, [r2, #68]	; 0x44
 8001422:	6c52      	ldr	r2, [r2, #68]	; 0x44
 8001424:	f026 0003 	bic.w	r0, r6, #3
 8001428:	f100 4080 	add.w	r0, r0, #1073741824	; 0x40000000
 800142c:	f402 4280 	and.w	r2, r2, #16384	; 0x4000
 8001430:	f500 309c 	add.w	r0, r0, #79872	; 0x13800
 8001434:	9201      	str	r2, [sp, #4]
 8001436:	f006 0c03 	and.w	ip, r6, #3
 800143a:	9a01      	ldr	r2, [sp, #4]
 800143c:	f8d0 e008 	ldr.w	lr, [r0, #8]
 8001440:	ea4f 0c8c 	mov.w	ip, ip, lsl #2
 8001444:	220f      	movs	r2, #15
 8001446:	fa02 f20c 	lsl.w	r2, r2, ip
 800144a:	ea2e 0e02 	bic.w	lr, lr, r2
 800144e:	4a26      	ldr	r2, [pc, #152]	; (80014e8 <HAL_GPIO_Init+0x244>)
 8001450:	4294      	cmp	r4, r2
 8001452:	d011      	beq.n	8001478 <HAL_GPIO_Init+0x1d4>
 8001454:	42bc      	cmp	r4, r7
 8001456:	d041      	beq.n	80014dc <HAL_GPIO_Init+0x238>
 8001458:	f103 4380 	add.w	r3, r3, #1073741824	; 0x40000000
 800145c:	f503 3302 	add.w	r3, r3, #133120	; 0x20800
 8001460:	429c      	cmp	r4, r3
 8001462:	d03d      	beq.n	80014e0 <HAL_GPIO_Init+0x23c>
 8001464:	f503 6380 	add.w	r3, r3, #1024	; 0x400
 8001468:	429c      	cmp	r4, r3
 800146a:	d03b      	beq.n	80014e4 <HAL_GPIO_Init+0x240>
 800146c:	f503 6380 	add.w	r3, r3, #1024	; 0x400
 8001470:	429c      	cmp	r4, r3
 8001472:	bf14      	ite	ne
 8001474:	2307      	movne	r3, #7
 8001476:	2304      	moveq	r3, #4
 8001478:	fa03 f30c 	lsl.w	r3, r3, ip
 800147c:	ea43 030e 	orr.w	r3, r3, lr
 8001480:	6083      	str	r3, [r0, #8]
 8001482:	f8d8 2000 	ldr.w	r2, [r8]
 8001486:	ea6f 0009 	mvn.w	r0, r9
 800148a:	03cb      	lsls	r3, r1, #15
 800148c:	bf54      	ite	pl
 800148e:	4002      	andpl	r2, r0
 8001490:	ea49 0202 	orrmi.w	r2, r9, r2
 8001494:	f8c8 2000 	str.w	r2, [r8]
 8001498:	f8d8 2004 	ldr.w	r2, [r8, #4]
 800149c:	038b      	lsls	r3, r1, #14
 800149e:	bf54      	ite	pl
 80014a0:	4002      	andpl	r2, r0
 80014a2:	ea49 0202 	orrmi.w	r2, r9, r2
 80014a6:	f8c8 2004 	str.w	r2, [r8, #4]
 80014aa:	f8d8 2008 	ldr.w	r2, [r8, #8]
 80014ae:	02cb      	lsls	r3, r1, #11
 80014b0:	bf54      	ite	pl
 80014b2:	4002      	andpl	r2, r0
 80014b4:	ea49 0202 	orrmi.w	r2, r9, r2
 80014b8:	f8c8 2008 	str.w	r2, [r8, #8]
 80014bc:	f8d8 300c 	ldr.w	r3, [r8, #12]
 80014c0:	028a      	lsls	r2, r1, #10
 80014c2:	bf54      	ite	pl
 80014c4:	4003      	andpl	r3, r0
 80014c6:	ea49 0303 	orrmi.w	r3, r9, r3
 80014ca:	f8c8 300c 	str.w	r3, [r8, #12]
 80014ce:	3601      	adds	r6, #1
 80014d0:	2e10      	cmp	r6, #16
 80014d2:	f47f af36 	bne.w	8001342 <HAL_GPIO_Init+0x9e>
 80014d6:	b003      	add	sp, #12
 80014d8:	e8bd 8ff0 	ldmia.w	sp!, {r4, r5, r6, r7, r8, r9, sl, fp, pc}
 80014dc:	2301      	movs	r3, #1
 80014de:	e7cb      	b.n	8001478 <HAL_GPIO_Init+0x1d4>
 80014e0:	2302      	movs	r3, #2
 80014e2:	e7c9      	b.n	8001478 <HAL_GPIO_Init+0x1d4>
 80014e4:	2303      	movs	r3, #3
 80014e6:	e7c7      	b.n	8001478 <HAL_GPIO_Init+0x1d4>
 80014e8:	40020000 	.word	0x40020000
 80014ec:	080039bf 	.word	0x080039bf
 80014f0:	10110000 	.word	0x10110000
 80014f4:	10220000 	.word	0x10220000
 80014f8:	40020400 	.word	0x40020400
 80014fc:	40023800 	.word	0x40023800
 8001500:	40013c00 	.word	0x40013c00

08001504 <HAL_GPIO_WritePin>:
 8001504:	b570      	push	{r4, r5, r6, lr}
 8001506:	4605      	mov	r5, r0
 8001508:	4616      	mov	r6, r2
 800150a:	460c      	mov	r4, r1
 800150c:	b921      	cbnz	r1, 8001518 <HAL_GPIO_WritePin+0x14>
 800150e:	f240 119f 	movw	r1, #415	; 0x19f
 8001512:	4808      	ldr	r0, [pc, #32]	; (8001534 <HAL_GPIO_WritePin+0x30>)
 8001514:	f7ff fa77 	bl	8000a06 <assert_failed>
 8001518:	2e01      	cmp	r6, #1
 800151a:	d906      	bls.n	800152a <HAL_GPIO_WritePin+0x26>
 800151c:	f44f 71d0 	mov.w	r1, #416	; 0x1a0
 8001520:	4804      	ldr	r0, [pc, #16]	; (8001534 <HAL_GPIO_WritePin+0x30>)
 8001522:	f7ff fa70 	bl	8000a06 <assert_failed>
 8001526:	61ac      	str	r4, [r5, #24]
 8001528:	bd70      	pop	{r4, r5, r6, pc}
 800152a:	2e00      	cmp	r6, #0
 800152c:	d1fb      	bne.n	8001526 <HAL_GPIO_WritePin+0x22>
 800152e:	0424      	lsls	r4, r4, #16
 8001530:	e7f9      	b.n	8001526 <HAL_GPIO_WritePin+0x22>
 8001532:	bf00      	nop
 8001534:	080039bf 	.word	0x080039bf

08001538 <HAL_I2C_Init>:
 8001538:	b570      	push	{r4, r5, r6, lr}
 800153a:	4604      	mov	r4, r0
 800153c:	b908      	cbnz	r0, 8001542 <HAL_I2C_Init+0xa>
 800153e:	2001      	movs	r0, #1
 8001540:	bd70      	pop	{r4, r5, r6, pc}
 8001542:	6803      	ldr	r3, [r0, #0]
 8001544:	4a7e      	ldr	r2, [pc, #504]	; (8001740 <HAL_I2C_Init+0x208>)
 8001546:	4293      	cmp	r3, r2
 8001548:	d00c      	beq.n	8001564 <HAL_I2C_Init+0x2c>
 800154a:	f502 6280 	add.w	r2, r2, #1024	; 0x400
 800154e:	4293      	cmp	r3, r2
 8001550:	d008      	beq.n	8001564 <HAL_I2C_Init+0x2c>
 8001552:	f502 6280 	add.w	r2, r2, #1024	; 0x400
 8001556:	4293      	cmp	r3, r2
 8001558:	d004      	beq.n	8001564 <HAL_I2C_Init+0x2c>
 800155a:	f240 11bf 	movw	r1, #447	; 0x1bf
 800155e:	4879      	ldr	r0, [pc, #484]	; (8001744 <HAL_I2C_Init+0x20c>)
 8001560:	f7ff fa51 	bl	8000a06 <assert_failed>
 8001564:	6863      	ldr	r3, [r4, #4]
 8001566:	4a78      	ldr	r2, [pc, #480]	; (8001748 <HAL_I2C_Init+0x210>)
 8001568:	3b01      	subs	r3, #1
 800156a:	4293      	cmp	r3, r2
 800156c:	d904      	bls.n	8001578 <HAL_I2C_Init+0x40>
 800156e:	f44f 71e0 	mov.w	r1, #448	; 0x1c0
 8001572:	4874      	ldr	r0, [pc, #464]	; (8001744 <HAL_I2C_Init+0x20c>)
 8001574:	f7ff fa47 	bl	8000a06 <assert_failed>
 8001578:	68a3      	ldr	r3, [r4, #8]
 800157a:	f433 4380 	bics.w	r3, r3, #16384	; 0x4000
 800157e:	d004      	beq.n	800158a <HAL_I2C_Init+0x52>
 8001580:	f240 11c1 	movw	r1, #449	; 0x1c1
 8001584:	486f      	ldr	r0, [pc, #444]	; (8001744 <HAL_I2C_Init+0x20c>)
 8001586:	f7ff fa3e 	bl	8000a06 <assert_failed>
 800158a:	68e3      	ldr	r3, [r4, #12]
 800158c:	f423 737f 	bic.w	r3, r3, #1020	; 0x3fc
 8001590:	f023 0303 	bic.w	r3, r3, #3
 8001594:	b123      	cbz	r3, 80015a0 <HAL_I2C_Init+0x68>
 8001596:	f44f 71e1 	mov.w	r1, #450	; 0x1c2
 800159a:	486a      	ldr	r0, [pc, #424]	; (8001744 <HAL_I2C_Init+0x20c>)
 800159c:	f7ff fa33 	bl	8000a06 <assert_failed>
 80015a0:	6923      	ldr	r3, [r4, #16]
 80015a2:	f423 4300 	bic.w	r3, r3, #32768	; 0x8000
 80015a6:	f5b3 4f80 	cmp.w	r3, #16384	; 0x4000
 80015aa:	d004      	beq.n	80015b6 <HAL_I2C_Init+0x7e>
 80015ac:	f240 11c3 	movw	r1, #451	; 0x1c3
 80015b0:	4864      	ldr	r0, [pc, #400]	; (8001744 <HAL_I2C_Init+0x20c>)
 80015b2:	f7ff fa28 	bl	8000a06 <assert_failed>
 80015b6:	6963      	ldr	r3, [r4, #20]
 80015b8:	2b01      	cmp	r3, #1
 80015ba:	d904      	bls.n	80015c6 <HAL_I2C_Init+0x8e>
 80015bc:	f44f 71e2 	mov.w	r1, #452	; 0x1c4
 80015c0:	4860      	ldr	r0, [pc, #384]	; (8001744 <HAL_I2C_Init+0x20c>)
 80015c2:	f7ff fa20 	bl	8000a06 <assert_failed>
 80015c6:	69a3      	ldr	r3, [r4, #24]
 80015c8:	f033 03fe 	bics.w	r3, r3, #254	; 0xfe
 80015cc:	d004      	beq.n	80015d8 <HAL_I2C_Init+0xa0>
 80015ce:	f240 11c5 	movw	r1, #453	; 0x1c5
 80015d2:	485c      	ldr	r0, [pc, #368]	; (8001744 <HAL_I2C_Init+0x20c>)
 80015d4:	f7ff fa17 	bl	8000a06 <assert_failed>
 80015d8:	69e3      	ldr	r3, [r4, #28]
 80015da:	f033 0340 	bics.w	r3, r3, #64	; 0x40
 80015de:	d004      	beq.n	80015ea <HAL_I2C_Init+0xb2>
 80015e0:	f44f 71e3 	mov.w	r1, #454	; 0x1c6
 80015e4:	4857      	ldr	r0, [pc, #348]	; (8001744 <HAL_I2C_Init+0x20c>)
 80015e6:	f7ff fa0e 	bl	8000a06 <assert_failed>
 80015ea:	6a23      	ldr	r3, [r4, #32]
 80015ec:	f033 0380 	bics.w	r3, r3, #128	; 0x80
 80015f0:	d004      	beq.n	80015fc <HAL_I2C_Init+0xc4>
 80015f2:	f240 11c7 	movw	r1, #455	; 0x1c7
 80015f6:	4853      	ldr	r0, [pc, #332]	; (8001744 <HAL_I2C_Init+0x20c>)
 80015f8:	f7ff fa05 	bl	8000a06 <assert_failed>
 80015fc:	f894 303d 	ldrb.w	r3, [r4, #61]	; 0x3d
 8001600:	f003 02ff 	and.w	r2, r3, #255	; 0xff
 8001604:	b923      	cbnz	r3, 8001610 <HAL_I2C_Init+0xd8>
 8001606:	f884 203c 	strb.w	r2, [r4, #60]	; 0x3c
 800160a:	4620      	mov	r0, r4
 800160c:	f7fe fffe 	bl	800060c <HAL_I2C_MspInit>
 8001610:	2324      	movs	r3, #36	; 0x24
 8001612:	f884 303d 	strb.w	r3, [r4, #61]	; 0x3d
 8001616:	6823      	ldr	r3, [r4, #0]
 8001618:	681a      	ldr	r2, [r3, #0]
 800161a:	f022 0201 	bic.w	r2, r2, #1
 800161e:	601a      	str	r2, [r3, #0]
 8001620:	681a      	ldr	r2, [r3, #0]
 8001622:	f442 4200 	orr.w	r2, r2, #32768	; 0x8000
 8001626:	601a      	str	r2, [r3, #0]
 8001628:	681a      	ldr	r2, [r3, #0]
 800162a:	f422 4200 	bic.w	r2, r2, #32768	; 0x8000
 800162e:	601a      	str	r2, [r3, #0]
 8001630:	f001 fc40 	bl	8002eb4 <HAL_RCC_GetPCLK1Freq>
 8001634:	6863      	ldr	r3, [r4, #4]
 8001636:	4a45      	ldr	r2, [pc, #276]	; (800174c <HAL_I2C_Init+0x214>)
 8001638:	4293      	cmp	r3, r2
 800163a:	d810      	bhi.n	800165e <HAL_I2C_Init+0x126>
 800163c:	4a44      	ldr	r2, [pc, #272]	; (8001750 <HAL_I2C_Init+0x218>)
 800163e:	4290      	cmp	r0, r2
 8001640:	f67f af7d 	bls.w	800153e <HAL_I2C_Init+0x6>
 8001644:	6822      	ldr	r2, [r4, #0]
 8001646:	4943      	ldr	r1, [pc, #268]	; (8001754 <HAL_I2C_Init+0x21c>)
 8001648:	6855      	ldr	r5, [r2, #4]
 800164a:	fbb0 f1f1 	udiv	r1, r0, r1
 800164e:	f025 053f 	bic.w	r5, r5, #63	; 0x3f
 8001652:	430d      	orrs	r5, r1
 8001654:	6055      	str	r5, [r2, #4]
 8001656:	6a15      	ldr	r5, [r2, #32]
 8001658:	f025 053f 	bic.w	r5, r5, #63	; 0x3f
 800165c:	e016      	b.n	800168c <HAL_I2C_Init+0x154>
 800165e:	4a3e      	ldr	r2, [pc, #248]	; (8001758 <HAL_I2C_Init+0x220>)
 8001660:	4290      	cmp	r0, r2
 8001662:	f67f af6c 	bls.w	800153e <HAL_I2C_Init+0x6>
 8001666:	6822      	ldr	r2, [r4, #0]
 8001668:	4e3a      	ldr	r6, [pc, #232]	; (8001754 <HAL_I2C_Init+0x21c>)
 800166a:	6855      	ldr	r5, [r2, #4]
 800166c:	fbb0 f6f6 	udiv	r6, r0, r6
 8001670:	f025 053f 	bic.w	r5, r5, #63	; 0x3f
 8001674:	4335      	orrs	r5, r6
 8001676:	6055      	str	r5, [r2, #4]
 8001678:	6a15      	ldr	r5, [r2, #32]
 800167a:	f44f 7196 	mov.w	r1, #300	; 0x12c
 800167e:	f025 053f 	bic.w	r5, r5, #63	; 0x3f
 8001682:	4371      	muls	r1, r6
 8001684:	f44f 767a 	mov.w	r6, #1000	; 0x3e8
 8001688:	fbb1 f1f6 	udiv	r1, r1, r6
 800168c:	3101      	adds	r1, #1
 800168e:	4329      	orrs	r1, r5
 8001690:	6211      	str	r1, [r2, #32]
 8001692:	69d1      	ldr	r1, [r2, #28]
 8001694:	4d2d      	ldr	r5, [pc, #180]	; (800174c <HAL_I2C_Init+0x214>)
 8001696:	f421 414f 	bic.w	r1, r1, #52992	; 0xcf00
 800169a:	42ab      	cmp	r3, r5
 800169c:	f021 01ff 	bic.w	r1, r1, #255	; 0xff
 80016a0:	f100 30ff 	add.w	r0, r0, #4294967295	; 0xffffffff
 80016a4:	d831      	bhi.n	800170a <HAL_I2C_Init+0x1d2>
 80016a6:	005b      	lsls	r3, r3, #1
 80016a8:	fbb0 f0f3 	udiv	r0, r0, r3
 80016ac:	1c43      	adds	r3, r0, #1
 80016ae:	f3c3 030b 	ubfx	r3, r3, #0, #12
 80016b2:	2b04      	cmp	r3, #4
 80016b4:	bf38      	it	cc
 80016b6:	2304      	movcc	r3, #4
 80016b8:	430b      	orrs	r3, r1
 80016ba:	61d3      	str	r3, [r2, #28]
 80016bc:	e9d4 3007 	ldrd	r3, r0, [r4, #28]
 80016c0:	6811      	ldr	r1, [r2, #0]
 80016c2:	4303      	orrs	r3, r0
 80016c4:	f021 01c0 	bic.w	r1, r1, #192	; 0xc0
 80016c8:	430b      	orrs	r3, r1
 80016ca:	6013      	str	r3, [r2, #0]
 80016cc:	6891      	ldr	r1, [r2, #8]
 80016ce:	e9d4 0303 	ldrd	r0, r3, [r4, #12]
 80016d2:	f421 4103 	bic.w	r1, r1, #33536	; 0x8300
 80016d6:	4303      	orrs	r3, r0
 80016d8:	f021 01ff 	bic.w	r1, r1, #255	; 0xff
 80016dc:	430b      	orrs	r3, r1
 80016de:	6093      	str	r3, [r2, #8]
 80016e0:	e9d4 3005 	ldrd	r3, r0, [r4, #20]
 80016e4:	68d1      	ldr	r1, [r2, #12]
 80016e6:	4303      	orrs	r3, r0
 80016e8:	f021 01ff 	bic.w	r1, r1, #255	; 0xff
 80016ec:	430b      	orrs	r3, r1
 80016ee:	60d3      	str	r3, [r2, #12]
 80016f0:	6813      	ldr	r3, [r2, #0]
 80016f2:	f043 0301 	orr.w	r3, r3, #1
 80016f6:	6013      	str	r3, [r2, #0]
 80016f8:	2000      	movs	r0, #0
 80016fa:	2320      	movs	r3, #32
 80016fc:	6420      	str	r0, [r4, #64]	; 0x40
 80016fe:	f884 303d 	strb.w	r3, [r4, #61]	; 0x3d
 8001702:	6320      	str	r0, [r4, #48]	; 0x30
 8001704:	f884 003e 	strb.w	r0, [r4, #62]	; 0x3e
 8001708:	e71a      	b.n	8001540 <HAL_I2C_Init+0x8>
 800170a:	68a5      	ldr	r5, [r4, #8]
 800170c:	b955      	cbnz	r5, 8001724 <HAL_I2C_Init+0x1ec>
 800170e:	eb03 0343 	add.w	r3, r3, r3, lsl #1
 8001712:	fbb0 f0f3 	udiv	r0, r0, r3
 8001716:	1c43      	adds	r3, r0, #1
 8001718:	f3c3 030b 	ubfx	r3, r3, #0, #12
 800171c:	b16b      	cbz	r3, 800173a <HAL_I2C_Init+0x202>
 800171e:	f443 4300 	orr.w	r3, r3, #32768	; 0x8000
 8001722:	e7c9      	b.n	80016b8 <HAL_I2C_Init+0x180>
 8001724:	2519      	movs	r5, #25
 8001726:	436b      	muls	r3, r5
 8001728:	fbb0 f0f3 	udiv	r0, r0, r3
 800172c:	1c43      	adds	r3, r0, #1
 800172e:	f3c3 030b 	ubfx	r3, r3, #0, #12
 8001732:	b113      	cbz	r3, 800173a <HAL_I2C_Init+0x202>
 8001734:	f443 4340 	orr.w	r3, r3, #49152	; 0xc000
 8001738:	e7be      	b.n	80016b8 <HAL_I2C_Init+0x180>
 800173a:	2301      	movs	r3, #1
 800173c:	e7bc      	b.n	80016b8 <HAL_I2C_Init+0x180>
 800173e:	bf00      	nop
 8001740:	40005400 	.word	0x40005400
 8001744:	080039f8 	.word	0x080039f8
 8001748:	00061a7f 	.word	0x00061a7f
 800174c:	000186a0 	.word	0x000186a0
 8001750:	001e847f 	.word	0x001e847f
 8001754:	000f4240 	.word	0x000f4240
 8001758:	003d08ff 	.word	0x003d08ff

0800175c <HAL_I2C_Slave_Seq_Transmit_DMA>:
 800175c:	e92d 43f7 	stmdb	sp!, {r0, r1, r2, r4, r5, r6, r7, r8, r9, lr}
 8001760:	4691      	mov	r9, r2
 8001762:	1e5a      	subs	r2, r3, #1
 8001764:	2a1f      	cmp	r2, #31
 8001766:	4604      	mov	r4, r0
 8001768:	460f      	mov	r7, r1
 800176a:	461e      	mov	r6, r3
 800176c:	d80c      	bhi.n	8001788 <HAL_I2C_Slave_Seq_Transmit_DMA+0x2c>
 800176e:	4b52      	ldr	r3, [pc, #328]	; (80018b8 <HAL_I2C_Slave_Seq_Transmit_DMA+0x15c>)
 8001770:	40d3      	lsrs	r3, r2
 8001772:	07d8      	lsls	r0, r3, #31
 8001774:	d40b      	bmi.n	800178e <HAL_I2C_Slave_Seq_Transmit_DMA+0x32>
 8001776:	f1b6 4f2a 	cmp.w	r6, #2852126720	; 0xaa000000
 800177a:	d008      	beq.n	800178e <HAL_I2C_Slave_Seq_Transmit_DMA+0x32>
 800177c:	f241 0111 	movw	r1, #4113	; 0x1011
 8001780:	484e      	ldr	r0, [pc, #312]	; (80018bc <HAL_I2C_Slave_Seq_Transmit_DMA+0x160>)
 8001782:	f7ff f940 	bl	8000a06 <assert_failed>
 8001786:	e002      	b.n	800178e <HAL_I2C_Slave_Seq_Transmit_DMA+0x32>
 8001788:	f5b3 0f2a 	cmp.w	r3, #11141120	; 0xaa0000
 800178c:	d1f3      	bne.n	8001776 <HAL_I2C_Slave_Seq_Transmit_DMA+0x1a>
 800178e:	f894 303d 	ldrb.w	r3, [r4, #61]	; 0x3d
 8001792:	f003 0328 	and.w	r3, r3, #40	; 0x28
 8001796:	2b28      	cmp	r3, #40	; 0x28
 8001798:	f040 808b 	bne.w	80018b2 <HAL_I2C_Slave_Seq_Transmit_DMA+0x156>
 800179c:	2f00      	cmp	r7, #0
 800179e:	f000 8086 	beq.w	80018ae <HAL_I2C_Slave_Seq_Transmit_DMA+0x152>
 80017a2:	f1b9 0f00 	cmp.w	r9, #0
 80017a6:	f000 8082 	beq.w	80018ae <HAL_I2C_Slave_Seq_Transmit_DMA+0x152>
 80017aa:	f894 303c 	ldrb.w	r3, [r4, #60]	; 0x3c
 80017ae:	2b01      	cmp	r3, #1
 80017b0:	d07f      	beq.n	80018b2 <HAL_I2C_Slave_Seq_Transmit_DMA+0x156>
 80017b2:	2301      	movs	r3, #1
 80017b4:	f884 303c 	strb.w	r3, [r4, #60]	; 0x3c
 80017b8:	6823      	ldr	r3, [r4, #0]
 80017ba:	685a      	ldr	r2, [r3, #4]
 80017bc:	f422 7240 	bic.w	r2, r2, #768	; 0x300
 80017c0:	605a      	str	r2, [r3, #4]
 80017c2:	f894 203d 	ldrb.w	r2, [r4, #61]	; 0x3d
 80017c6:	2a2a      	cmp	r2, #42	; 0x2a
 80017c8:	d151      	bne.n	800186e <HAL_I2C_Slave_Seq_Transmit_DMA+0x112>
 80017ca:	685a      	ldr	r2, [r3, #4]
 80017cc:	0511      	lsls	r1, r2, #20
 80017ce:	d50d      	bpl.n	80017ec <HAL_I2C_Slave_Seq_Transmit_DMA+0x90>
 80017d0:	6ba0      	ldr	r0, [r4, #56]	; 0x38
 80017d2:	b158      	cbz	r0, 80017ec <HAL_I2C_Slave_Seq_Transmit_DMA+0x90>
 80017d4:	685a      	ldr	r2, [r3, #4]
 80017d6:	f422 6200 	bic.w	r2, r2, #2048	; 0x800
 80017da:	605a      	str	r2, [r3, #4]
 80017dc:	4b38      	ldr	r3, [pc, #224]	; (80018c0 <HAL_I2C_Slave_Seq_Transmit_DMA+0x164>)
 80017de:	6503      	str	r3, [r0, #80]	; 0x50
 80017e0:	f7ff fc8a 	bl	80010f8 <HAL_DMA_Abort_IT>
 80017e4:	b110      	cbz	r0, 80017ec <HAL_I2C_Slave_Seq_Transmit_DMA+0x90>
 80017e6:	6ba0      	ldr	r0, [r4, #56]	; 0x38
 80017e8:	6d03      	ldr	r3, [r0, #80]	; 0x50
 80017ea:	4798      	blx	r3
 80017ec:	6822      	ldr	r2, [r4, #0]
 80017ee:	6b60      	ldr	r0, [r4, #52]	; 0x34
 80017f0:	6813      	ldr	r3, [r2, #0]
 80017f2:	4934      	ldr	r1, [pc, #208]	; (80018c4 <HAL_I2C_Slave_Seq_Transmit_DMA+0x168>)
 80017f4:	07db      	lsls	r3, r3, #31
 80017f6:	bf5e      	ittt	pl
 80017f8:	6813      	ldrpl	r3, [r2, #0]
 80017fa:	f043 0301 	orrpl.w	r3, r3, #1
 80017fe:	6013      	strpl	r3, [r2, #0]
 8001800:	6813      	ldr	r3, [r2, #0]
 8001802:	f423 6300 	bic.w	r3, r3, #2048	; 0x800
 8001806:	f842 3b10 	str.w	r3, [r2], #16
 800180a:	2500      	movs	r5, #0
 800180c:	2329      	movs	r3, #41	; 0x29
 800180e:	f04f 0820 	mov.w	r8, #32
 8001812:	f884 303d 	strb.w	r3, [r4, #61]	; 0x3d
 8001816:	f884 803e 	strb.w	r8, [r4, #62]	; 0x3e
 800181a:	6425      	str	r5, [r4, #64]	; 0x40
 800181c:	f8a4 902a 	strh.w	r9, [r4, #42]	; 0x2a
 8001820:	8d63      	ldrh	r3, [r4, #42]	; 0x2a
 8001822:	6267      	str	r7, [r4, #36]	; 0x24
 8001824:	b29b      	uxth	r3, r3
 8001826:	8523      	strh	r3, [r4, #40]	; 0x28
 8001828:	62e6      	str	r6, [r4, #44]	; 0x2c
 800182a:	63c1      	str	r1, [r0, #60]	; 0x3c
 800182c:	4926      	ldr	r1, [pc, #152]	; (80018c8 <HAL_I2C_Slave_Seq_Transmit_DMA+0x16c>)
 800182e:	64c1      	str	r1, [r0, #76]	; 0x4c
 8001830:	6405      	str	r5, [r0, #64]	; 0x40
 8001832:	6505      	str	r5, [r0, #80]	; 0x50
 8001834:	4639      	mov	r1, r7
 8001836:	f7ff fc0f 	bl	8001058 <HAL_DMA_Start_IT>
 800183a:	2800      	cmp	r0, #0
 800183c:	d12d      	bne.n	800189a <HAL_I2C_Slave_Seq_Transmit_DMA+0x13e>
 800183e:	6823      	ldr	r3, [r4, #0]
 8001840:	681a      	ldr	r2, [r3, #0]
 8001842:	f442 6280 	orr.w	r2, r2, #1024	; 0x400
 8001846:	601a      	str	r2, [r3, #0]
 8001848:	9001      	str	r0, [sp, #4]
 800184a:	695a      	ldr	r2, [r3, #20]
 800184c:	9201      	str	r2, [sp, #4]
 800184e:	699a      	ldr	r2, [r3, #24]
 8001850:	9201      	str	r2, [sp, #4]
 8001852:	9a01      	ldr	r2, [sp, #4]
 8001854:	685a      	ldr	r2, [r3, #4]
 8001856:	f884 003c 	strb.w	r0, [r4, #60]	; 0x3c
 800185a:	f442 7240 	orr.w	r2, r2, #768	; 0x300
 800185e:	605a      	str	r2, [r3, #4]
 8001860:	685a      	ldr	r2, [r3, #4]
 8001862:	f442 6200 	orr.w	r2, r2, #2048	; 0x800
 8001866:	605a      	str	r2, [r3, #4]
 8001868:	b003      	add	sp, #12
 800186a:	e8bd 83f0 	ldmia.w	sp!, {r4, r5, r6, r7, r8, r9, pc}
 800186e:	f894 203d 	ldrb.w	r2, [r4, #61]	; 0x3d
 8001872:	2a29      	cmp	r2, #41	; 0x29
 8001874:	d1ba      	bne.n	80017ec <HAL_I2C_Slave_Seq_Transmit_DMA+0x90>
 8001876:	685a      	ldr	r2, [r3, #4]
 8001878:	0512      	lsls	r2, r2, #20
 800187a:	d5b7      	bpl.n	80017ec <HAL_I2C_Slave_Seq_Transmit_DMA+0x90>
 800187c:	685a      	ldr	r2, [r3, #4]
 800187e:	6b60      	ldr	r0, [r4, #52]	; 0x34
 8001880:	f422 6200 	bic.w	r2, r2, #2048	; 0x800
 8001884:	605a      	str	r2, [r3, #4]
 8001886:	2800      	cmp	r0, #0
 8001888:	d0b0      	beq.n	80017ec <HAL_I2C_Slave_Seq_Transmit_DMA+0x90>
 800188a:	4b0d      	ldr	r3, [pc, #52]	; (80018c0 <HAL_I2C_Slave_Seq_Transmit_DMA+0x164>)
 800188c:	6503      	str	r3, [r0, #80]	; 0x50
 800188e:	f7ff fc33 	bl	80010f8 <HAL_DMA_Abort_IT>
 8001892:	2800      	cmp	r0, #0
 8001894:	d0aa      	beq.n	80017ec <HAL_I2C_Slave_Seq_Transmit_DMA+0x90>
 8001896:	6b60      	ldr	r0, [r4, #52]	; 0x34
 8001898:	e7a6      	b.n	80017e8 <HAL_I2C_Slave_Seq_Transmit_DMA+0x8c>
 800189a:	f884 803d 	strb.w	r8, [r4, #61]	; 0x3d
 800189e:	f884 503e 	strb.w	r5, [r4, #62]	; 0x3e
 80018a2:	6c23      	ldr	r3, [r4, #64]	; 0x40
 80018a4:	f884 503c 	strb.w	r5, [r4, #60]	; 0x3c
 80018a8:	f043 0310 	orr.w	r3, r3, #16
 80018ac:	6423      	str	r3, [r4, #64]	; 0x40
 80018ae:	2001      	movs	r0, #1
 80018b0:	e7da      	b.n	8001868 <HAL_I2C_Slave_Seq_Transmit_DMA+0x10c>
 80018b2:	2002      	movs	r0, #2
 80018b4:	e7d8      	b.n	8001868 <HAL_I2C_Slave_Seq_Transmit_DMA+0x10c>
 80018b6:	bf00      	nop
 80018b8:	8000808b 	.word	0x8000808b
 80018bc:	080039f8 	.word	0x080039f8
 80018c0:	08001c71 	.word	0x08001c71
 80018c4:	08001b67 	.word	0x08001b67
 80018c8:	08001b23 	.word	0x08001b23

080018cc <HAL_I2C_Slave_Seq_Receive_DMA>:
 80018cc:	e92d 43f7 	stmdb	sp!, {r0, r1, r2, r4, r5, r6, r7, r8, r9, lr}
 80018d0:	4691      	mov	r9, r2
 80018d2:	1e5a      	subs	r2, r3, #1
 80018d4:	2a1f      	cmp	r2, #31
 80018d6:	4604      	mov	r4, r0
 80018d8:	460f      	mov	r7, r1
 80018da:	461e      	mov	r6, r3
 80018dc:	d80c      	bhi.n	80018f8 <HAL_I2C_Slave_Seq_Receive_DMA+0x2c>
 80018de:	4b52      	ldr	r3, [pc, #328]	; (8001a28 <HAL_I2C_Slave_Seq_Receive_DMA+0x15c>)
 80018e0:	40d3      	lsrs	r3, r2
 80018e2:	07d8      	lsls	r0, r3, #31
 80018e4:	d40b      	bmi.n	80018fe <HAL_I2C_Slave_Seq_Receive_DMA+0x32>
 80018e6:	f1b6 4f2a 	cmp.w	r6, #2852126720	; 0xaa000000
 80018ea:	d008      	beq.n	80018fe <HAL_I2C_Slave_Seq_Receive_DMA+0x32>
 80018ec:	f241 01f0 	movw	r1, #4336	; 0x10f0
 80018f0:	484e      	ldr	r0, [pc, #312]	; (8001a2c <HAL_I2C_Slave_Seq_Receive_DMA+0x160>)
 80018f2:	f7ff f888 	bl	8000a06 <assert_failed>
 80018f6:	e002      	b.n	80018fe <HAL_I2C_Slave_Seq_Receive_DMA+0x32>
 80018f8:	f5b3 0f2a 	cmp.w	r3, #11141120	; 0xaa0000
 80018fc:	d1f3      	bne.n	80018e6 <HAL_I2C_Slave_Seq_Receive_DMA+0x1a>
 80018fe:	f894 303d 	ldrb.w	r3, [r4, #61]	; 0x3d
 8001902:	f003 0328 	and.w	r3, r3, #40	; 0x28
 8001906:	2b28      	cmp	r3, #40	; 0x28
 8001908:	f040 808b 	bne.w	8001a22 <HAL_I2C_Slave_Seq_Receive_DMA+0x156>
 800190c:	2f00      	cmp	r7, #0
 800190e:	f000 8086 	beq.w	8001a1e <HAL_I2C_Slave_Seq_Receive_DMA+0x152>
 8001912:	f1b9 0f00 	cmp.w	r9, #0
 8001916:	f000 8082 	beq.w	8001a1e <HAL_I2C_Slave_Seq_Receive_DMA+0x152>
 800191a:	f894 303c 	ldrb.w	r3, [r4, #60]	; 0x3c
 800191e:	2b01      	cmp	r3, #1
 8001920:	d07f      	beq.n	8001a22 <HAL_I2C_Slave_Seq_Receive_DMA+0x156>
 8001922:	2301      	movs	r3, #1
 8001924:	f884 303c 	strb.w	r3, [r4, #60]	; 0x3c
 8001928:	6823      	ldr	r3, [r4, #0]
 800192a:	685a      	ldr	r2, [r3, #4]
 800192c:	f422 7240 	bic.w	r2, r2, #768	; 0x300
 8001930:	605a      	str	r2, [r3, #4]
 8001932:	f894 203d 	ldrb.w	r2, [r4, #61]	; 0x3d
 8001936:	2a2a      	cmp	r2, #42	; 0x2a
 8001938:	d151      	bne.n	80019de <HAL_I2C_Slave_Seq_Receive_DMA+0x112>
 800193a:	685a      	ldr	r2, [r3, #4]
 800193c:	0511      	lsls	r1, r2, #20
 800193e:	d50d      	bpl.n	800195c <HAL_I2C_Slave_Seq_Receive_DMA+0x90>
 8001940:	6ba0      	ldr	r0, [r4, #56]	; 0x38
 8001942:	b158      	cbz	r0, 800195c <HAL_I2C_Slave_Seq_Receive_DMA+0x90>
 8001944:	685a      	ldr	r2, [r3, #4]
 8001946:	f422 6200 	bic.w	r2, r2, #2048	; 0x800
 800194a:	605a      	str	r2, [r3, #4]
 800194c:	4b38      	ldr	r3, [pc, #224]	; (8001a30 <HAL_I2C_Slave_Seq_Receive_DMA+0x164>)
 800194e:	6503      	str	r3, [r0, #80]	; 0x50
 8001950:	f7ff fbd2 	bl	80010f8 <HAL_DMA_Abort_IT>
 8001954:	b110      	cbz	r0, 800195c <HAL_I2C_Slave_Seq_Receive_DMA+0x90>
 8001956:	6ba0      	ldr	r0, [r4, #56]	; 0x38
 8001958:	6d03      	ldr	r3, [r0, #80]	; 0x50
 800195a:	4798      	blx	r3
 800195c:	6821      	ldr	r1, [r4, #0]
 800195e:	6ba0      	ldr	r0, [r4, #56]	; 0x38
 8001960:	680b      	ldr	r3, [r1, #0]
 8001962:	4a34      	ldr	r2, [pc, #208]	; (8001a34 <HAL_I2C_Slave_Seq_Receive_DMA+0x168>)
 8001964:	07db      	lsls	r3, r3, #31
 8001966:	bf5e      	ittt	pl
 8001968:	680b      	ldrpl	r3, [r1, #0]
 800196a:	f043 0301 	orrpl.w	r3, r3, #1
 800196e:	600b      	strpl	r3, [r1, #0]
 8001970:	680b      	ldr	r3, [r1, #0]
 8001972:	f423 6300 	bic.w	r3, r3, #2048	; 0x800
 8001976:	f841 3b10 	str.w	r3, [r1], #16
 800197a:	2500      	movs	r5, #0
 800197c:	232a      	movs	r3, #42	; 0x2a
 800197e:	f04f 0820 	mov.w	r8, #32
 8001982:	f884 303d 	strb.w	r3, [r4, #61]	; 0x3d
 8001986:	f884 803e 	strb.w	r8, [r4, #62]	; 0x3e
 800198a:	6425      	str	r5, [r4, #64]	; 0x40
 800198c:	f8a4 902a 	strh.w	r9, [r4, #42]	; 0x2a
 8001990:	8d63      	ldrh	r3, [r4, #42]	; 0x2a
 8001992:	6267      	str	r7, [r4, #36]	; 0x24
 8001994:	b29b      	uxth	r3, r3
 8001996:	8523      	strh	r3, [r4, #40]	; 0x28
 8001998:	62e6      	str	r6, [r4, #44]	; 0x2c
 800199a:	63c2      	str	r2, [r0, #60]	; 0x3c
 800199c:	4a26      	ldr	r2, [pc, #152]	; (8001a38 <HAL_I2C_Slave_Seq_Receive_DMA+0x16c>)
 800199e:	64c2      	str	r2, [r0, #76]	; 0x4c
 80019a0:	6405      	str	r5, [r0, #64]	; 0x40
 80019a2:	6505      	str	r5, [r0, #80]	; 0x50
 80019a4:	463a      	mov	r2, r7
 80019a6:	f7ff fb57 	bl	8001058 <HAL_DMA_Start_IT>
 80019aa:	2800      	cmp	r0, #0
 80019ac:	d12d      	bne.n	8001a0a <HAL_I2C_Slave_Seq_Receive_DMA+0x13e>
 80019ae:	6823      	ldr	r3, [r4, #0]
 80019b0:	681a      	ldr	r2, [r3, #0]
 80019b2:	f442 6280 	orr.w	r2, r2, #1024	; 0x400
 80019b6:	601a      	str	r2, [r3, #0]
 80019b8:	9001      	str	r0, [sp, #4]
 80019ba:	695a      	ldr	r2, [r3, #20]
 80019bc:	9201      	str	r2, [sp, #4]
 80019be:	699a      	ldr	r2, [r3, #24]
 80019c0:	9201      	str	r2, [sp, #4]
 80019c2:	9a01      	ldr	r2, [sp, #4]
 80019c4:	685a      	ldr	r2, [r3, #4]
 80019c6:	f884 003c 	strb.w	r0, [r4, #60]	; 0x3c
 80019ca:	f442 6200 	orr.w	r2, r2, #2048	; 0x800
 80019ce:	605a      	str	r2, [r3, #4]
 80019d0:	685a      	ldr	r2, [r3, #4]
 80019d2:	f442 7240 	orr.w	r2, r2, #768	; 0x300
 80019d6:	605a      	str	r2, [r3, #4]
 80019d8:	b003      	add	sp, #12
 80019da:	e8bd 83f0 	ldmia.w	sp!, {r4, r5, r6, r7, r8, r9, pc}
 80019de:	f894 203d 	ldrb.w	r2, [r4, #61]	; 0x3d
 80019e2:	2a29      	cmp	r2, #41	; 0x29
 80019e4:	d1ba      	bne.n	800195c <HAL_I2C_Slave_Seq_Receive_DMA+0x90>
 80019e6:	685a      	ldr	r2, [r3, #4]
 80019e8:	0512      	lsls	r2, r2, #20
 80019ea:	d5b7      	bpl.n	800195c <HAL_I2C_Slave_Seq_Receive_DMA+0x90>
 80019ec:	685a      	ldr	r2, [r3, #4]
 80019ee:	6b60      	ldr	r0, [r4, #52]	; 0x34
 80019f0:	f422 6200 	bic.w	r2, r2, #2048	; 0x800
 80019f4:	605a      	str	r2, [r3, #4]
 80019f6:	2800      	cmp	r0, #0
 80019f8:	d0b0      	beq.n	800195c <HAL_I2C_Slave_Seq_Receive_DMA+0x90>
 80019fa:	4b0d      	ldr	r3, [pc, #52]	; (8001a30 <HAL_I2C_Slave_Seq_Receive_DMA+0x164>)
 80019fc:	6503      	str	r3, [r0, #80]	; 0x50
 80019fe:	f7ff fb7b 	bl	80010f8 <HAL_DMA_Abort_IT>
 8001a02:	2800      	cmp	r0, #0
 8001a04:	d0aa      	beq.n	800195c <HAL_I2C_Slave_Seq_Receive_DMA+0x90>
 8001a06:	6b60      	ldr	r0, [r4, #52]	; 0x34
 8001a08:	e7a6      	b.n	8001958 <HAL_I2C_Slave_Seq_Receive_DMA+0x8c>
 8001a0a:	f884 803d 	strb.w	r8, [r4, #61]	; 0x3d
 8001a0e:	f884 503e 	strb.w	r5, [r4, #62]	; 0x3e
 8001a12:	6c23      	ldr	r3, [r4, #64]	; 0x40
 8001a14:	f884 503c 	strb.w	r5, [r4, #60]	; 0x3c
 8001a18:	f043 0310 	orr.w	r3, r3, #16
 8001a1c:	6423      	str	r3, [r4, #64]	; 0x40
 8001a1e:	2001      	movs	r0, #1
 8001a20:	e7da      	b.n	80019d8 <HAL_I2C_Slave_Seq_Receive_DMA+0x10c>
 8001a22:	2002      	movs	r0, #2
 8001a24:	e7d8      	b.n	80019d8 <HAL_I2C_Slave_Seq_Receive_DMA+0x10c>
 8001a26:	bf00      	nop
 8001a28:	8000808b 	.word	0x8000808b
 8001a2c:	080039f8 	.word	0x080039f8
 8001a30:	08001c71 	.word	0x08001c71
 8001a34:	08001b67 	.word	0x08001b67
 8001a38:	08001b23 	.word	0x08001b23

08001a3c <HAL_I2C_EnableListen_IT>:
 8001a3c:	f890 303d 	ldrb.w	r3, [r0, #61]	; 0x3d
 8001a40:	2b20      	cmp	r3, #32
 8001a42:	d114      	bne.n	8001a6e <HAL_I2C_EnableListen_IT+0x32>
 8001a44:	2328      	movs	r3, #40	; 0x28
 8001a46:	f880 303d 	strb.w	r3, [r0, #61]	; 0x3d
 8001a4a:	6803      	ldr	r3, [r0, #0]
 8001a4c:	681a      	ldr	r2, [r3, #0]
 8001a4e:	07d2      	lsls	r2, r2, #31
 8001a50:	bf5e      	ittt	pl
 8001a52:	681a      	ldrpl	r2, [r3, #0]
 8001a54:	f042 0201 	orrpl.w	r2, r2, #1
 8001a58:	601a      	strpl	r2, [r3, #0]
 8001a5a:	681a      	ldr	r2, [r3, #0]
 8001a5c:	f442 6280 	orr.w	r2, r2, #1024	; 0x400
 8001a60:	601a      	str	r2, [r3, #0]
 8001a62:	685a      	ldr	r2, [r3, #4]
 8001a64:	f442 7240 	orr.w	r2, r2, #768	; 0x300
 8001a68:	605a      	str	r2, [r3, #4]
 8001a6a:	2000      	movs	r0, #0
 8001a6c:	4770      	bx	lr
 8001a6e:	2002      	movs	r0, #2
 8001a70:	4770      	bx	lr

08001a72 <HAL_I2C_MasterTxCpltCallback>:
 8001a72:	4770      	bx	lr

08001a74 <HAL_I2C_MasterRxCpltCallback>:
 8001a74:	4770      	bx	lr

08001a76 <HAL_I2C_SlaveTxCpltCallback>:
 8001a76:	4770      	bx	lr

08001a78 <HAL_I2C_SlaveRxCpltCallback>:
 8001a78:	4770      	bx	lr

08001a7a <HAL_I2C_MemTxCpltCallback>:
 8001a7a:	4770      	bx	lr

08001a7c <I2C_MemoryTransmit_TXE_BTF>:
 8001a7c:	f890 203d 	ldrb.w	r2, [r0, #61]	; 0x3d
 8001a80:	b508      	push	{r3, lr}
 8001a82:	6d03      	ldr	r3, [r0, #80]	; 0x50
 8001a84:	b2d2      	uxtb	r2, r2
 8001a86:	b983      	cbnz	r3, 8001aaa <I2C_MemoryTransmit_TXE_BTF+0x2e>
 8001a88:	6cc3      	ldr	r3, [r0, #76]	; 0x4c
 8001a8a:	6802      	ldr	r2, [r0, #0]
 8001a8c:	2b01      	cmp	r3, #1
 8001a8e:	6c83      	ldr	r3, [r0, #72]	; 0x48
 8001a90:	d105      	bne.n	8001a9e <I2C_MemoryTransmit_TXE_BTF+0x22>
 8001a92:	b2db      	uxtb	r3, r3
 8001a94:	6113      	str	r3, [r2, #16]
 8001a96:	6d03      	ldr	r3, [r0, #80]	; 0x50
 8001a98:	3302      	adds	r3, #2
 8001a9a:	6503      	str	r3, [r0, #80]	; 0x50
 8001a9c:	bd08      	pop	{r3, pc}
 8001a9e:	f3c3 2307 	ubfx	r3, r3, #8, #8
 8001aa2:	6113      	str	r3, [r2, #16]
 8001aa4:	6d03      	ldr	r3, [r0, #80]	; 0x50
 8001aa6:	3301      	adds	r3, #1
 8001aa8:	e7f7      	b.n	8001a9a <I2C_MemoryTransmit_TXE_BTF+0x1e>
 8001aaa:	6d03      	ldr	r3, [r0, #80]	; 0x50
 8001aac:	2b01      	cmp	r3, #1
 8001aae:	d103      	bne.n	8001ab8 <I2C_MemoryTransmit_TXE_BTF+0x3c>
 8001ab0:	6c83      	ldr	r3, [r0, #72]	; 0x48
 8001ab2:	6802      	ldr	r2, [r0, #0]
 8001ab4:	b2db      	uxtb	r3, r3
 8001ab6:	e7f4      	b.n	8001aa2 <I2C_MemoryTransmit_TXE_BTF+0x26>
 8001ab8:	6d03      	ldr	r3, [r0, #80]	; 0x50
 8001aba:	2b02      	cmp	r3, #2
 8001abc:	d1ee      	bne.n	8001a9c <I2C_MemoryTransmit_TXE_BTF+0x20>
 8001abe:	2a22      	cmp	r2, #34	; 0x22
 8001ac0:	d105      	bne.n	8001ace <I2C_MemoryTransmit_TXE_BTF+0x52>
 8001ac2:	6802      	ldr	r2, [r0, #0]
 8001ac4:	6813      	ldr	r3, [r2, #0]
 8001ac6:	f443 7380 	orr.w	r3, r3, #256	; 0x100
 8001aca:	6013      	str	r3, [r2, #0]
 8001acc:	e7e6      	b.n	8001a9c <I2C_MemoryTransmit_TXE_BTF+0x20>
 8001ace:	8d43      	ldrh	r3, [r0, #42]	; 0x2a
 8001ad0:	b29b      	uxth	r3, r3
 8001ad2:	b163      	cbz	r3, 8001aee <I2C_MemoryTransmit_TXE_BTF+0x72>
 8001ad4:	2a21      	cmp	r2, #33	; 0x21
 8001ad6:	d10a      	bne.n	8001aee <I2C_MemoryTransmit_TXE_BTF+0x72>
 8001ad8:	6a43      	ldr	r3, [r0, #36]	; 0x24
 8001ada:	6802      	ldr	r2, [r0, #0]
 8001adc:	f813 1b01 	ldrb.w	r1, [r3], #1
 8001ae0:	6111      	str	r1, [r2, #16]
 8001ae2:	6243      	str	r3, [r0, #36]	; 0x24
 8001ae4:	8d43      	ldrh	r3, [r0, #42]	; 0x2a
 8001ae6:	3b01      	subs	r3, #1
 8001ae8:	b29b      	uxth	r3, r3
 8001aea:	8543      	strh	r3, [r0, #42]	; 0x2a
 8001aec:	e7d6      	b.n	8001a9c <I2C_MemoryTransmit_TXE_BTF+0x20>
 8001aee:	8d43      	ldrh	r3, [r0, #42]	; 0x2a
 8001af0:	b29b      	uxth	r3, r3
 8001af2:	2b00      	cmp	r3, #0
 8001af4:	d1d2      	bne.n	8001a9c <I2C_MemoryTransmit_TXE_BTF+0x20>
 8001af6:	2a21      	cmp	r2, #33	; 0x21
 8001af8:	d1d0      	bne.n	8001a9c <I2C_MemoryTransmit_TXE_BTF+0x20>
 8001afa:	6802      	ldr	r2, [r0, #0]
 8001afc:	6851      	ldr	r1, [r2, #4]
 8001afe:	f421 61e0 	bic.w	r1, r1, #1792	; 0x700
 8001b02:	6051      	str	r1, [r2, #4]
 8001b04:	6811      	ldr	r1, [r2, #0]
 8001b06:	f441 7100 	orr.w	r1, r1, #512	; 0x200
 8001b0a:	6011      	str	r1, [r2, #0]
 8001b0c:	2220      	movs	r2, #32
 8001b0e:	6303      	str	r3, [r0, #48]	; 0x30
 8001b10:	f880 203d 	strb.w	r2, [r0, #61]	; 0x3d
 8001b14:	f880 303e 	strb.w	r3, [r0, #62]	; 0x3e
 8001b18:	f7ff ffaf 	bl	8001a7a <HAL_I2C_MemTxCpltCallback>
 8001b1c:	e7be      	b.n	8001a9c <I2C_MemoryTransmit_TXE_BTF+0x20>

08001b1e <HAL_I2C_MemRxCpltCallback>:
 8001b1e:	4770      	bx	lr

08001b20 <HAL_I2C_ErrorCallback>:
 8001b20:	4770      	bx	lr

08001b22 <I2C_DMAError>:
 8001b22:	b510      	push	{r4, lr}
 8001b24:	6b84      	ldr	r4, [r0, #56]	; 0x38
 8001b26:	6b63      	ldr	r3, [r4, #52]	; 0x34
 8001b28:	b10b      	cbz	r3, 8001b2e <I2C_DMAError+0xc>
 8001b2a:	2200      	movs	r2, #0
 8001b2c:	63da      	str	r2, [r3, #60]	; 0x3c
 8001b2e:	6ba3      	ldr	r3, [r4, #56]	; 0x38
 8001b30:	b10b      	cbz	r3, 8001b36 <I2C_DMAError+0x14>
 8001b32:	2200      	movs	r2, #0
 8001b34:	63da      	str	r2, [r3, #60]	; 0x3c
 8001b36:	f7ff fbb2 	bl	800129e <HAL_DMA_GetError>
 8001b3a:	2802      	cmp	r0, #2
 8001b3c:	d012      	beq.n	8001b64 <I2C_DMAError+0x42>
 8001b3e:	6822      	ldr	r2, [r4, #0]
 8001b40:	6813      	ldr	r3, [r2, #0]
 8001b42:	f423 6380 	bic.w	r3, r3, #1024	; 0x400
 8001b46:	6013      	str	r3, [r2, #0]
 8001b48:	2300      	movs	r3, #0
 8001b4a:	2220      	movs	r2, #32
 8001b4c:	8563      	strh	r3, [r4, #42]	; 0x2a
 8001b4e:	f884 203d 	strb.w	r2, [r4, #61]	; 0x3d
 8001b52:	f884 303e 	strb.w	r3, [r4, #62]	; 0x3e
 8001b56:	6c23      	ldr	r3, [r4, #64]	; 0x40
 8001b58:	f043 0310 	orr.w	r3, r3, #16
 8001b5c:	6423      	str	r3, [r4, #64]	; 0x40
 8001b5e:	4620      	mov	r0, r4
 8001b60:	f7ff ffde 	bl	8001b20 <HAL_I2C_ErrorCallback>
 8001b64:	bd10      	pop	{r4, pc}

08001b66 <I2C_DMAXferCplt>:
 8001b66:	b570      	push	{r4, r5, r6, lr}
 8001b68:	6b84      	ldr	r4, [r0, #56]	; 0x38
 8001b6a:	6823      	ldr	r3, [r4, #0]
 8001b6c:	f894 203d 	ldrb.w	r2, [r4, #61]	; 0x3d
 8001b70:	f894 003e 	ldrb.w	r0, [r4, #62]	; 0x3e
 8001b74:	6ae1      	ldr	r1, [r4, #44]	; 0x2c
 8001b76:	685d      	ldr	r5, [r3, #4]
 8001b78:	f425 7540 	bic.w	r5, r5, #768	; 0x300
 8001b7c:	605d      	str	r5, [r3, #4]
 8001b7e:	6b65      	ldr	r5, [r4, #52]	; 0x34
 8001b80:	b2d2      	uxtb	r2, r2
 8001b82:	b2c0      	uxtb	r0, r0
 8001b84:	b10d      	cbz	r5, 8001b8a <I2C_DMAXferCplt+0x24>
 8001b86:	2600      	movs	r6, #0
 8001b88:	63ee      	str	r6, [r5, #60]	; 0x3c
 8001b8a:	6ba5      	ldr	r5, [r4, #56]	; 0x38
 8001b8c:	b10d      	cbz	r5, 8001b92 <I2C_DMAXferCplt+0x2c>
 8001b8e:	2600      	movs	r6, #0
 8001b90:	63ee      	str	r6, [r5, #60]	; 0x3c
 8001b92:	f002 0521 	and.w	r5, r2, #33	; 0x21
 8001b96:	2d21      	cmp	r5, #33	; 0x21
 8001b98:	d005      	beq.n	8001ba6 <I2C_DMAXferCplt+0x40>
 8001b9a:	f002 0522 	and.w	r5, r2, #34	; 0x22
 8001b9e:	2d22      	cmp	r5, #34	; 0x22
 8001ba0:	d123      	bne.n	8001bea <I2C_DMAXferCplt+0x84>
 8001ba2:	2820      	cmp	r0, #32
 8001ba4:	d121      	bne.n	8001bea <I2C_DMAXferCplt+0x84>
 8001ba6:	6859      	ldr	r1, [r3, #4]
 8001ba8:	f421 6100 	bic.w	r1, r1, #2048	; 0x800
 8001bac:	6059      	str	r1, [r3, #4]
 8001bae:	2a29      	cmp	r2, #41	; 0x29
 8001bb0:	f04f 0300 	mov.w	r3, #0
 8001bb4:	8563      	strh	r3, [r4, #42]	; 0x2a
 8001bb6:	d10d      	bne.n	8001bd4 <I2C_DMAXferCplt+0x6e>
 8001bb8:	2321      	movs	r3, #33	; 0x21
 8001bba:	6323      	str	r3, [r4, #48]	; 0x30
 8001bbc:	2328      	movs	r3, #40	; 0x28
 8001bbe:	f884 303d 	strb.w	r3, [r4, #61]	; 0x3d
 8001bc2:	4620      	mov	r0, r4
 8001bc4:	f7ff ff57 	bl	8001a76 <HAL_I2C_SlaveTxCpltCallback>
 8001bc8:	6822      	ldr	r2, [r4, #0]
 8001bca:	6853      	ldr	r3, [r2, #4]
 8001bcc:	f443 7340 	orr.w	r3, r3, #768	; 0x300
 8001bd0:	6053      	str	r3, [r2, #4]
 8001bd2:	bd70      	pop	{r4, r5, r6, pc}
 8001bd4:	2a2a      	cmp	r2, #42	; 0x2a
 8001bd6:	d1f7      	bne.n	8001bc8 <I2C_DMAXferCplt+0x62>
 8001bd8:	2322      	movs	r3, #34	; 0x22
 8001bda:	6323      	str	r3, [r4, #48]	; 0x30
 8001bdc:	2328      	movs	r3, #40	; 0x28
 8001bde:	f884 303d 	strb.w	r3, [r4, #61]	; 0x3d
 8001be2:	4620      	mov	r0, r4
 8001be4:	f7ff ff48 	bl	8001a78 <HAL_I2C_SlaveRxCpltCallback>
 8001be8:	e7ee      	b.n	8001bc8 <I2C_DMAXferCplt+0x62>
 8001bea:	f894 203e 	ldrb.w	r2, [r4, #62]	; 0x3e
 8001bee:	2a00      	cmp	r2, #0
 8001bf0:	d0ef      	beq.n	8001bd2 <I2C_DMAXferCplt+0x6c>
 8001bf2:	8d62      	ldrh	r2, [r4, #42]	; 0x2a
 8001bf4:	b292      	uxth	r2, r2
 8001bf6:	2a01      	cmp	r2, #1
 8001bf8:	bf02      	ittt	eq
 8001bfa:	681a      	ldreq	r2, [r3, #0]
 8001bfc:	f422 6280 	biceq.w	r2, r2, #1024	; 0x400
 8001c00:	601a      	streq	r2, [r3, #0]
 8001c02:	685a      	ldr	r2, [r3, #4]
 8001c04:	f511 3f80 	cmn.w	r1, #65536	; 0x10000
 8001c08:	f422 7240 	bic.w	r2, r2, #768	; 0x300
 8001c0c:	605a      	str	r2, [r3, #4]
 8001c0e:	d006      	beq.n	8001c1e <I2C_DMAXferCplt+0xb8>
 8001c10:	2908      	cmp	r1, #8
 8001c12:	d004      	beq.n	8001c1e <I2C_DMAXferCplt+0xb8>
 8001c14:	f1b1 4f2a 	cmp.w	r1, #2852126720	; 0xaa000000
 8001c18:	d001      	beq.n	8001c1e <I2C_DMAXferCplt+0xb8>
 8001c1a:	2920      	cmp	r1, #32
 8001c1c:	d103      	bne.n	8001c26 <I2C_DMAXferCplt+0xc0>
 8001c1e:	681a      	ldr	r2, [r3, #0]
 8001c20:	f442 7200 	orr.w	r2, r2, #512	; 0x200
 8001c24:	601a      	str	r2, [r3, #0]
 8001c26:	685a      	ldr	r2, [r3, #4]
 8001c28:	f422 5280 	bic.w	r2, r2, #4096	; 0x1000
 8001c2c:	605a      	str	r2, [r3, #4]
 8001c2e:	685a      	ldr	r2, [r3, #4]
 8001c30:	f422 6200 	bic.w	r2, r2, #2048	; 0x800
 8001c34:	605a      	str	r2, [r3, #4]
 8001c36:	2300      	movs	r3, #0
 8001c38:	8563      	strh	r3, [r4, #42]	; 0x2a
 8001c3a:	6c23      	ldr	r3, [r4, #64]	; 0x40
 8001c3c:	b11b      	cbz	r3, 8001c46 <I2C_DMAXferCplt+0xe0>
 8001c3e:	4620      	mov	r0, r4
 8001c40:	f7ff ff6e 	bl	8001b20 <HAL_I2C_ErrorCallback>
 8001c44:	e7c5      	b.n	8001bd2 <I2C_DMAXferCplt+0x6c>
 8001c46:	2220      	movs	r2, #32
 8001c48:	f884 203d 	strb.w	r2, [r4, #61]	; 0x3d
 8001c4c:	f894 203e 	ldrb.w	r2, [r4, #62]	; 0x3e
 8001c50:	f884 303e 	strb.w	r3, [r4, #62]	; 0x3e
 8001c54:	2a40      	cmp	r2, #64	; 0x40
 8001c56:	d104      	bne.n	8001c62 <I2C_DMAXferCplt+0xfc>
 8001c58:	6323      	str	r3, [r4, #48]	; 0x30
 8001c5a:	4620      	mov	r0, r4
 8001c5c:	f7ff ff5f 	bl	8001b1e <HAL_I2C_MemRxCpltCallback>
 8001c60:	e7b7      	b.n	8001bd2 <I2C_DMAXferCplt+0x6c>
 8001c62:	2312      	movs	r3, #18
 8001c64:	6323      	str	r3, [r4, #48]	; 0x30
 8001c66:	4620      	mov	r0, r4
 8001c68:	f7ff ff04 	bl	8001a74 <HAL_I2C_MasterRxCpltCallback>
 8001c6c:	e7b1      	b.n	8001bd2 <I2C_DMAXferCplt+0x6c>

08001c6e <HAL_I2C_AbortCpltCallback>:
 8001c6e:	4770      	bx	lr

08001c70 <I2C_DMAAbort>:
 8001c70:	b537      	push	{r0, r1, r2, r4, r5, lr}
 8001c72:	2300      	movs	r3, #0
 8001c74:	6b80      	ldr	r0, [r0, #56]	; 0x38
 8001c76:	9301      	str	r3, [sp, #4]
 8001c78:	f890 203d 	ldrb.w	r2, [r0, #61]	; 0x3d
 8001c7c:	4b2b      	ldr	r3, [pc, #172]	; (8001d2c <I2C_DMAAbort+0xbc>)
 8001c7e:	b2d1      	uxtb	r1, r2
 8001c80:	681b      	ldr	r3, [r3, #0]
 8001c82:	f246 12a8 	movw	r2, #25000	; 0x61a8
 8001c86:	fbb3 f2f2 	udiv	r2, r3, r2
 8001c8a:	2323      	movs	r3, #35	; 0x23
 8001c8c:	4353      	muls	r3, r2
 8001c8e:	9301      	str	r3, [sp, #4]
 8001c90:	6803      	ldr	r3, [r0, #0]
 8001c92:	9a01      	ldr	r2, [sp, #4]
 8001c94:	bb42      	cbnz	r2, 8001ce8 <I2C_DMAAbort+0x78>
 8001c96:	6c02      	ldr	r2, [r0, #64]	; 0x40
 8001c98:	f042 0220 	orr.w	r2, r2, #32
 8001c9c:	6402      	str	r2, [r0, #64]	; 0x40
 8001c9e:	6b45      	ldr	r5, [r0, #52]	; 0x34
 8001ca0:	b10d      	cbz	r5, 8001ca6 <I2C_DMAAbort+0x36>
 8001ca2:	2200      	movs	r2, #0
 8001ca4:	63ea      	str	r2, [r5, #60]	; 0x3c
 8001ca6:	6b84      	ldr	r4, [r0, #56]	; 0x38
 8001ca8:	b10c      	cbz	r4, 8001cae <I2C_DMAAbort+0x3e>
 8001caa:	2200      	movs	r2, #0
 8001cac:	63e2      	str	r2, [r4, #60]	; 0x3c
 8001cae:	681a      	ldr	r2, [r3, #0]
 8001cb0:	f422 6280 	bic.w	r2, r2, #1024	; 0x400
 8001cb4:	601a      	str	r2, [r3, #0]
 8001cb6:	2200      	movs	r2, #0
 8001cb8:	8542      	strh	r2, [r0, #42]	; 0x2a
 8001cba:	b105      	cbz	r5, 8001cbe <I2C_DMAAbort+0x4e>
 8001cbc:	652a      	str	r2, [r5, #80]	; 0x50
 8001cbe:	b104      	cbz	r4, 8001cc2 <I2C_DMAAbort+0x52>
 8001cc0:	6522      	str	r2, [r4, #80]	; 0x50
 8001cc2:	681a      	ldr	r2, [r3, #0]
 8001cc4:	f022 0201 	bic.w	r2, r2, #1
 8001cc8:	601a      	str	r2, [r3, #0]
 8001cca:	f890 203d 	ldrb.w	r2, [r0, #61]	; 0x3d
 8001cce:	2a60      	cmp	r2, #96	; 0x60
 8001cd0:	d111      	bne.n	8001cf6 <I2C_DMAAbort+0x86>
 8001cd2:	2320      	movs	r3, #32
 8001cd4:	f880 303d 	strb.w	r3, [r0, #61]	; 0x3d
 8001cd8:	2300      	movs	r3, #0
 8001cda:	f880 303e 	strb.w	r3, [r0, #62]	; 0x3e
 8001cde:	6403      	str	r3, [r0, #64]	; 0x40
 8001ce0:	f7ff ffc5 	bl	8001c6e <HAL_I2C_AbortCpltCallback>
 8001ce4:	b003      	add	sp, #12
 8001ce6:	bd30      	pop	{r4, r5, pc}
 8001ce8:	9a01      	ldr	r2, [sp, #4]
 8001cea:	3a01      	subs	r2, #1
 8001cec:	9201      	str	r2, [sp, #4]
 8001cee:	681a      	ldr	r2, [r3, #0]
 8001cf0:	0592      	lsls	r2, r2, #22
 8001cf2:	d4ce      	bmi.n	8001c92 <I2C_DMAAbort+0x22>
 8001cf4:	e7d3      	b.n	8001c9e <I2C_DMAAbort+0x2e>
 8001cf6:	f001 0228 	and.w	r2, r1, #40	; 0x28
 8001cfa:	2a28      	cmp	r2, #40	; 0x28
 8001cfc:	d10e      	bne.n	8001d1c <I2C_DMAAbort+0xac>
 8001cfe:	6819      	ldr	r1, [r3, #0]
 8001d00:	f041 0101 	orr.w	r1, r1, #1
 8001d04:	6019      	str	r1, [r3, #0]
 8001d06:	6819      	ldr	r1, [r3, #0]
 8001d08:	f441 6180 	orr.w	r1, r1, #1024	; 0x400
 8001d0c:	6019      	str	r1, [r3, #0]
 8001d0e:	2300      	movs	r3, #0
 8001d10:	6303      	str	r3, [r0, #48]	; 0x30
 8001d12:	f880 203d 	strb.w	r2, [r0, #61]	; 0x3d
 8001d16:	f7ff ff03 	bl	8001b20 <HAL_I2C_ErrorCallback>
 8001d1a:	e7e3      	b.n	8001ce4 <I2C_DMAAbort+0x74>
 8001d1c:	2320      	movs	r3, #32
 8001d1e:	f880 303d 	strb.w	r3, [r0, #61]	; 0x3d
 8001d22:	2300      	movs	r3, #0
 8001d24:	f880 303e 	strb.w	r3, [r0, #62]	; 0x3e
 8001d28:	e7f5      	b.n	8001d16 <I2C_DMAAbort+0xa6>
 8001d2a:	bf00      	nop
 8001d2c:	2000000c 	.word	0x2000000c

08001d30 <I2C_ITError>:
 8001d30:	f890 203d 	ldrb.w	r2, [r0, #61]	; 0x3d
 8001d34:	f890 103e 	ldrb.w	r1, [r0, #62]	; 0x3e
 8001d38:	6803      	ldr	r3, [r0, #0]
 8001d3a:	b2c9      	uxtb	r1, r1
 8001d3c:	2910      	cmp	r1, #16
 8001d3e:	b510      	push	{r4, lr}
 8001d40:	b2d2      	uxtb	r2, r2
 8001d42:	4604      	mov	r4, r0
 8001d44:	d001      	beq.n	8001d4a <I2C_ITError+0x1a>
 8001d46:	2940      	cmp	r1, #64	; 0x40
 8001d48:	d105      	bne.n	8001d56 <I2C_ITError+0x26>
 8001d4a:	2a22      	cmp	r2, #34	; 0x22
 8001d4c:	bf02      	ittt	eq
 8001d4e:	6819      	ldreq	r1, [r3, #0]
 8001d50:	f421 6100 	biceq.w	r1, r1, #2048	; 0x800
 8001d54:	6019      	streq	r1, [r3, #0]
 8001d56:	f002 0128 	and.w	r1, r2, #40	; 0x28
 8001d5a:	2928      	cmp	r1, #40	; 0x28
 8001d5c:	d13d      	bne.n	8001dda <I2C_ITError+0xaa>
 8001d5e:	2200      	movs	r2, #0
 8001d60:	6322      	str	r2, [r4, #48]	; 0x30
 8001d62:	f884 103d 	strb.w	r1, [r4, #61]	; 0x3d
 8001d66:	685a      	ldr	r2, [r3, #4]
 8001d68:	f412 6200 	ands.w	r2, r2, #2048	; 0x800
 8001d6c:	d05d      	beq.n	8001e2a <I2C_ITError+0xfa>
 8001d6e:	685a      	ldr	r2, [r3, #4]
 8001d70:	6b60      	ldr	r0, [r4, #52]	; 0x34
 8001d72:	f422 6200 	bic.w	r2, r2, #2048	; 0x800
 8001d76:	605a      	str	r2, [r3, #4]
 8001d78:	f890 3035 	ldrb.w	r3, [r0, #53]	; 0x35
 8001d7c:	2b01      	cmp	r3, #1
 8001d7e:	4b3e      	ldr	r3, [pc, #248]	; (8001e78 <I2C_ITError+0x148>)
 8001d80:	d039      	beq.n	8001df6 <I2C_ITError+0xc6>
 8001d82:	6503      	str	r3, [r0, #80]	; 0x50
 8001d84:	f7ff f9b8 	bl	80010f8 <HAL_DMA_Abort_IT>
 8001d88:	b150      	cbz	r0, 8001da0 <I2C_ITError+0x70>
 8001d8a:	6822      	ldr	r2, [r4, #0]
 8001d8c:	6b60      	ldr	r0, [r4, #52]	; 0x34
 8001d8e:	6813      	ldr	r3, [r2, #0]
 8001d90:	f023 0301 	bic.w	r3, r3, #1
 8001d94:	6013      	str	r3, [r2, #0]
 8001d96:	2320      	movs	r3, #32
 8001d98:	f884 303d 	strb.w	r3, [r4, #61]	; 0x3d
 8001d9c:	6d03      	ldr	r3, [r0, #80]	; 0x50
 8001d9e:	4798      	blx	r3
 8001da0:	6c23      	ldr	r3, [r4, #64]	; 0x40
 8001da2:	0719      	lsls	r1, r3, #28
 8001da4:	bf1f      	itttt	ne
 8001da6:	6822      	ldrne	r2, [r4, #0]
 8001da8:	6853      	ldrne	r3, [r2, #4]
 8001daa:	f423 63e0 	bicne.w	r3, r3, #1792	; 0x700
 8001dae:	6053      	strne	r3, [r2, #4]
 8001db0:	f894 303d 	ldrb.w	r3, [r4, #61]	; 0x3d
 8001db4:	6c22      	ldr	r2, [r4, #64]	; 0x40
 8001db6:	0752      	lsls	r2, r2, #29
 8001db8:	b2db      	uxtb	r3, r3
 8001dba:	d50d      	bpl.n	8001dd8 <I2C_ITError+0xa8>
 8001dbc:	2b28      	cmp	r3, #40	; 0x28
 8001dbe:	d10b      	bne.n	8001dd8 <I2C_ITError+0xa8>
 8001dc0:	4b2e      	ldr	r3, [pc, #184]	; (8001e7c <I2C_ITError+0x14c>)
 8001dc2:	62e3      	str	r3, [r4, #44]	; 0x2c
 8001dc4:	2220      	movs	r2, #32
 8001dc6:	2300      	movs	r3, #0
 8001dc8:	6323      	str	r3, [r4, #48]	; 0x30
 8001dca:	4620      	mov	r0, r4
 8001dcc:	f884 203d 	strb.w	r2, [r4, #61]	; 0x3d
 8001dd0:	f884 303e 	strb.w	r3, [r4, #62]	; 0x3e
 8001dd4:	f7fe fd70 	bl	80008b8 <HAL_I2C_ListenCpltCallback>
 8001dd8:	bd10      	pop	{r4, pc}
 8001dda:	6859      	ldr	r1, [r3, #4]
 8001ddc:	f411 6100 	ands.w	r1, r1, #2048	; 0x800
 8001de0:	d106      	bne.n	8001df0 <I2C_ITError+0xc0>
 8001de2:	2a60      	cmp	r2, #96	; 0x60
 8001de4:	bf1e      	ittt	ne
 8001de6:	2220      	movne	r2, #32
 8001de8:	f884 203d 	strbne.w	r2, [r4, #61]	; 0x3d
 8001dec:	f884 103e 	strbne.w	r1, [r4, #62]	; 0x3e
 8001df0:	2200      	movs	r2, #0
 8001df2:	6322      	str	r2, [r4, #48]	; 0x30
 8001df4:	e7b7      	b.n	8001d66 <I2C_ITError+0x36>
 8001df6:	6ba0      	ldr	r0, [r4, #56]	; 0x38
 8001df8:	6503      	str	r3, [r0, #80]	; 0x50
 8001dfa:	f7ff f97d 	bl	80010f8 <HAL_DMA_Abort_IT>
 8001dfe:	2800      	cmp	r0, #0
 8001e00:	d0ce      	beq.n	8001da0 <I2C_ITError+0x70>
 8001e02:	6823      	ldr	r3, [r4, #0]
 8001e04:	695a      	ldr	r2, [r3, #20]
 8001e06:	0651      	lsls	r1, r2, #25
 8001e08:	d505      	bpl.n	8001e16 <I2C_ITError+0xe6>
 8001e0a:	691a      	ldr	r2, [r3, #16]
 8001e0c:	6a63      	ldr	r3, [r4, #36]	; 0x24
 8001e0e:	701a      	strb	r2, [r3, #0]
 8001e10:	6a63      	ldr	r3, [r4, #36]	; 0x24
 8001e12:	3301      	adds	r3, #1
 8001e14:	6263      	str	r3, [r4, #36]	; 0x24
 8001e16:	6822      	ldr	r2, [r4, #0]
 8001e18:	6ba0      	ldr	r0, [r4, #56]	; 0x38
 8001e1a:	6813      	ldr	r3, [r2, #0]
 8001e1c:	f023 0301 	bic.w	r3, r3, #1
 8001e20:	6013      	str	r3, [r2, #0]
 8001e22:	2320      	movs	r3, #32
 8001e24:	f884 303d 	strb.w	r3, [r4, #61]	; 0x3d
 8001e28:	e7b8      	b.n	8001d9c <I2C_ITError+0x6c>
 8001e2a:	f894 103d 	ldrb.w	r1, [r4, #61]	; 0x3d
 8001e2e:	2960      	cmp	r1, #96	; 0x60
 8001e30:	d115      	bne.n	8001e5e <I2C_ITError+0x12e>
 8001e32:	2120      	movs	r1, #32
 8001e34:	f884 103d 	strb.w	r1, [r4, #61]	; 0x3d
 8001e38:	6422      	str	r2, [r4, #64]	; 0x40
 8001e3a:	695a      	ldr	r2, [r3, #20]
 8001e3c:	0652      	lsls	r2, r2, #25
 8001e3e:	d505      	bpl.n	8001e4c <I2C_ITError+0x11c>
 8001e40:	691a      	ldr	r2, [r3, #16]
 8001e42:	6a63      	ldr	r3, [r4, #36]	; 0x24
 8001e44:	701a      	strb	r2, [r3, #0]
 8001e46:	6a63      	ldr	r3, [r4, #36]	; 0x24
 8001e48:	3301      	adds	r3, #1
 8001e4a:	6263      	str	r3, [r4, #36]	; 0x24
 8001e4c:	6822      	ldr	r2, [r4, #0]
 8001e4e:	6813      	ldr	r3, [r2, #0]
 8001e50:	f023 0301 	bic.w	r3, r3, #1
 8001e54:	6013      	str	r3, [r2, #0]
 8001e56:	4620      	mov	r0, r4
 8001e58:	f7ff ff09 	bl	8001c6e <HAL_I2C_AbortCpltCallback>
 8001e5c:	e7a0      	b.n	8001da0 <I2C_ITError+0x70>
 8001e5e:	695a      	ldr	r2, [r3, #20]
 8001e60:	0650      	lsls	r0, r2, #25
 8001e62:	d505      	bpl.n	8001e70 <I2C_ITError+0x140>
 8001e64:	691a      	ldr	r2, [r3, #16]
 8001e66:	6a63      	ldr	r3, [r4, #36]	; 0x24
 8001e68:	701a      	strb	r2, [r3, #0]
 8001e6a:	6a63      	ldr	r3, [r4, #36]	; 0x24
 8001e6c:	3301      	adds	r3, #1
 8001e6e:	6263      	str	r3, [r4, #36]	; 0x24
 8001e70:	4620      	mov	r0, r4
 8001e72:	f7ff fe55 	bl	8001b20 <HAL_I2C_ErrorCallback>
 8001e76:	e793      	b.n	8001da0 <I2C_ITError+0x70>
 8001e78:	08001c71 	.word	0x08001c71
 8001e7c:	ffff0000 	.word	0xffff0000

08001e80 <HAL_I2C_EV_IRQHandler>:
 8001e80:	6803      	ldr	r3, [r0, #0]
 8001e82:	b570      	push	{r4, r5, r6, lr}
 8001e84:	685a      	ldr	r2, [r3, #4]
 8001e86:	6ac6      	ldr	r6, [r0, #44]	; 0x2c
 8001e88:	f890 503e 	ldrb.w	r5, [r0, #62]	; 0x3e
 8001e8c:	4604      	mov	r4, r0
 8001e8e:	b2ed      	uxtb	r5, r5
 8001e90:	f890 003d 	ldrb.w	r0, [r0, #61]	; 0x3d
 8001e94:	2d10      	cmp	r5, #16
 8001e96:	b08c      	sub	sp, #48	; 0x30
 8001e98:	b2c0      	uxtb	r0, r0
 8001e9a:	d002      	beq.n	8001ea2 <HAL_I2C_EV_IRQHandler+0x22>
 8001e9c:	2d40      	cmp	r5, #64	; 0x40
 8001e9e:	f040 82d6 	bne.w	800244e <HAL_I2C_EV_IRQHandler+0x5ce>
 8001ea2:	6998      	ldr	r0, [r3, #24]
 8001ea4:	6959      	ldr	r1, [r3, #20]
 8001ea6:	f011 0f01 	tst.w	r1, #1
 8001eaa:	d107      	bne.n	8001ebc <HAL_I2C_EV_IRQHandler+0x3c>
 8001eac:	f5b6 0f2a 	cmp.w	r6, #11141120	; 0xaa0000
 8001eb0:	d002      	beq.n	8001eb8 <HAL_I2C_EV_IRQHandler+0x38>
 8001eb2:	f1b6 4f2a 	cmp.w	r6, #2852126720	; 0xaa000000
 8001eb6:	d150      	bne.n	8001f5a <HAL_I2C_EV_IRQHandler+0xda>
 8001eb8:	b00c      	add	sp, #48	; 0x30
 8001eba:	bd70      	pop	{r4, r5, r6, pc}
 8001ebc:	0596      	lsls	r6, r2, #22
 8001ebe:	d54c      	bpl.n	8001f5a <HAL_I2C_EV_IRQHandler+0xda>
 8001ec0:	6ae2      	ldr	r2, [r4, #44]	; 0x2c
 8001ec2:	f5b2 0f2a 	cmp.w	r2, #11141120	; 0xaa0000
 8001ec6:	d10c      	bne.n	8001ee2 <HAL_I2C_EV_IRQHandler+0x62>
 8001ec8:	2201      	movs	r2, #1
 8001eca:	62e2      	str	r2, [r4, #44]	; 0x2c
 8001ecc:	f894 203e 	ldrb.w	r2, [r4, #62]	; 0x3e
 8001ed0:	2a40      	cmp	r2, #64	; 0x40
 8001ed2:	d111      	bne.n	8001ef8 <HAL_I2C_EV_IRQHandler+0x78>
 8001ed4:	6d22      	ldr	r2, [r4, #80]	; 0x50
 8001ed6:	b952      	cbnz	r2, 8001eee <HAL_I2C_EV_IRQHandler+0x6e>
 8001ed8:	6c62      	ldr	r2, [r4, #68]	; 0x44
 8001eda:	f002 02fe 	and.w	r2, r2, #254	; 0xfe
 8001ede:	611a      	str	r2, [r3, #16]
 8001ee0:	e7ea      	b.n	8001eb8 <HAL_I2C_EV_IRQHandler+0x38>
 8001ee2:	6ae2      	ldr	r2, [r4, #44]	; 0x2c
 8001ee4:	f1b2 4f2a 	cmp.w	r2, #2852126720	; 0xaa000000
 8001ee8:	d1f0      	bne.n	8001ecc <HAL_I2C_EV_IRQHandler+0x4c>
 8001eea:	2208      	movs	r2, #8
 8001eec:	e7ed      	b.n	8001eca <HAL_I2C_EV_IRQHandler+0x4a>
 8001eee:	6c62      	ldr	r2, [r4, #68]	; 0x44
 8001ef0:	f042 0201 	orr.w	r2, r2, #1
 8001ef4:	b2d2      	uxtb	r2, r2
 8001ef6:	e7f2      	b.n	8001ede <HAL_I2C_EV_IRQHandler+0x5e>
 8001ef8:	6922      	ldr	r2, [r4, #16]
 8001efa:	f5b2 4f80 	cmp.w	r2, #16384	; 0x4000
 8001efe:	d119      	bne.n	8001f34 <HAL_I2C_EV_IRQHandler+0xb4>
 8001f00:	f894 203d 	ldrb.w	r2, [r4, #61]	; 0x3d
 8001f04:	2a21      	cmp	r2, #33	; 0x21
 8001f06:	6c62      	ldr	r2, [r4, #68]	; 0x44
 8001f08:	bf16      	itet	ne
 8001f0a:	f042 0201 	orrne.w	r2, r2, #1
 8001f0e:	f002 02fe 	andeq.w	r2, r2, #254	; 0xfe
 8001f12:	b2d2      	uxtbne	r2, r2
 8001f14:	611a      	str	r2, [r3, #16]
 8001f16:	6b62      	ldr	r2, [r4, #52]	; 0x34
 8001f18:	b10a      	cbz	r2, 8001f1e <HAL_I2C_EV_IRQHandler+0x9e>
 8001f1a:	6bd2      	ldr	r2, [r2, #60]	; 0x3c
 8001f1c:	b92a      	cbnz	r2, 8001f2a <HAL_I2C_EV_IRQHandler+0xaa>
 8001f1e:	6ba2      	ldr	r2, [r4, #56]	; 0x38
 8001f20:	2a00      	cmp	r2, #0
 8001f22:	d0c9      	beq.n	8001eb8 <HAL_I2C_EV_IRQHandler+0x38>
 8001f24:	6bd2      	ldr	r2, [r2, #60]	; 0x3c
 8001f26:	2a00      	cmp	r2, #0
 8001f28:	d0c6      	beq.n	8001eb8 <HAL_I2C_EV_IRQHandler+0x38>
 8001f2a:	685a      	ldr	r2, [r3, #4]
 8001f2c:	f442 6200 	orr.w	r2, r2, #2048	; 0x800
 8001f30:	605a      	str	r2, [r3, #4]
 8001f32:	e7c1      	b.n	8001eb8 <HAL_I2C_EV_IRQHandler+0x38>
 8001f34:	6d22      	ldr	r2, [r4, #80]	; 0x50
 8001f36:	b932      	cbnz	r2, 8001f46 <HAL_I2C_EV_IRQHandler+0xc6>
 8001f38:	6c62      	ldr	r2, [r4, #68]	; 0x44
 8001f3a:	11d2      	asrs	r2, r2, #7
 8001f3c:	f002 0206 	and.w	r2, r2, #6
 8001f40:	f042 02f0 	orr.w	r2, r2, #240	; 0xf0
 8001f44:	e7cb      	b.n	8001ede <HAL_I2C_EV_IRQHandler+0x5e>
 8001f46:	6d22      	ldr	r2, [r4, #80]	; 0x50
 8001f48:	2a01      	cmp	r2, #1
 8001f4a:	d1b5      	bne.n	8001eb8 <HAL_I2C_EV_IRQHandler+0x38>
 8001f4c:	6c62      	ldr	r2, [r4, #68]	; 0x44
 8001f4e:	11d2      	asrs	r2, r2, #7
 8001f50:	f002 0206 	and.w	r2, r2, #6
 8001f54:	f042 02f1 	orr.w	r2, r2, #241	; 0xf1
 8001f58:	e7c1      	b.n	8001ede <HAL_I2C_EV_IRQHandler+0x5e>
 8001f5a:	070e      	lsls	r6, r1, #28
 8001f5c:	d50e      	bpl.n	8001f7c <HAL_I2C_EV_IRQHandler+0xfc>
 8001f5e:	0596      	lsls	r6, r2, #22
 8001f60:	d50c      	bpl.n	8001f7c <HAL_I2C_EV_IRQHandler+0xfc>
 8001f62:	6c62      	ldr	r2, [r4, #68]	; 0x44
 8001f64:	b2d2      	uxtb	r2, r2
 8001f66:	611a      	str	r2, [r3, #16]
 8001f68:	6b62      	ldr	r2, [r4, #52]	; 0x34
 8001f6a:	b912      	cbnz	r2, 8001f72 <HAL_I2C_EV_IRQHandler+0xf2>
 8001f6c:	6ba1      	ldr	r1, [r4, #56]	; 0x38
 8001f6e:	2900      	cmp	r1, #0
 8001f70:	d0a2      	beq.n	8001eb8 <HAL_I2C_EV_IRQHandler+0x38>
 8001f72:	6bd2      	ldr	r2, [r2, #60]	; 0x3c
 8001f74:	2a00      	cmp	r2, #0
 8001f76:	d1d8      	bne.n	8001f2a <HAL_I2C_EV_IRQHandler+0xaa>
 8001f78:	6ba2      	ldr	r2, [r4, #56]	; 0x38
 8001f7a:	e7d3      	b.n	8001f24 <HAL_I2C_EV_IRQHandler+0xa4>
 8001f7c:	078e      	lsls	r6, r1, #30
 8001f7e:	f140 80dd 	bpl.w	800213c <HAL_I2C_EV_IRQHandler+0x2bc>
 8001f82:	0596      	lsls	r6, r2, #22
 8001f84:	f140 80da 	bpl.w	800213c <HAL_I2C_EV_IRQHandler+0x2bc>
 8001f88:	f894 103e 	ldrb.w	r1, [r4, #62]	; 0x3e
 8001f8c:	6ae2      	ldr	r2, [r4, #44]	; 0x2c
 8001f8e:	6b25      	ldr	r5, [r4, #48]	; 0x30
 8001f90:	f894 003d 	ldrb.w	r0, [r4, #61]	; 0x3d
 8001f94:	2822      	cmp	r0, #34	; 0x22
 8001f96:	b2c9      	uxtb	r1, r1
 8001f98:	f040 80c8 	bne.w	800212c <HAL_I2C_EV_IRQHandler+0x2ac>
 8001f9c:	6d20      	ldr	r0, [r4, #80]	; 0x50
 8001f9e:	b940      	cbnz	r0, 8001fb2 <HAL_I2C_EV_IRQHandler+0x132>
 8001fa0:	2940      	cmp	r1, #64	; 0x40
 8001fa2:	d106      	bne.n	8001fb2 <HAL_I2C_EV_IRQHandler+0x132>
 8001fa4:	9000      	str	r0, [sp, #0]
 8001fa6:	695a      	ldr	r2, [r3, #20]
 8001fa8:	9200      	str	r2, [sp, #0]
 8001faa:	699b      	ldr	r3, [r3, #24]
 8001fac:	9300      	str	r3, [sp, #0]
 8001fae:	9b00      	ldr	r3, [sp, #0]
 8001fb0:	e782      	b.n	8001eb8 <HAL_I2C_EV_IRQHandler+0x38>
 8001fb2:	6d21      	ldr	r1, [r4, #80]	; 0x50
 8001fb4:	b989      	cbnz	r1, 8001fda <HAL_I2C_EV_IRQHandler+0x15a>
 8001fb6:	6920      	ldr	r0, [r4, #16]
 8001fb8:	f5b0 4f40 	cmp.w	r0, #49152	; 0xc000
 8001fbc:	d10d      	bne.n	8001fda <HAL_I2C_EV_IRQHandler+0x15a>
 8001fbe:	9101      	str	r1, [sp, #4]
 8001fc0:	695a      	ldr	r2, [r3, #20]
 8001fc2:	9201      	str	r2, [sp, #4]
 8001fc4:	699a      	ldr	r2, [r3, #24]
 8001fc6:	9201      	str	r2, [sp, #4]
 8001fc8:	9a01      	ldr	r2, [sp, #4]
 8001fca:	681a      	ldr	r2, [r3, #0]
 8001fcc:	f442 7280 	orr.w	r2, r2, #256	; 0x100
 8001fd0:	601a      	str	r2, [r3, #0]
 8001fd2:	6d23      	ldr	r3, [r4, #80]	; 0x50
 8001fd4:	3301      	adds	r3, #1
 8001fd6:	6523      	str	r3, [r4, #80]	; 0x50
 8001fd8:	e76e      	b.n	8001eb8 <HAL_I2C_EV_IRQHandler+0x38>
 8001fda:	8d61      	ldrh	r1, [r4, #42]	; 0x2a
 8001fdc:	b289      	uxth	r1, r1
 8001fde:	b951      	cbnz	r1, 8001ff6 <HAL_I2C_EV_IRQHandler+0x176>
 8001fe0:	9102      	str	r1, [sp, #8]
 8001fe2:	695a      	ldr	r2, [r3, #20]
 8001fe4:	9202      	str	r2, [sp, #8]
 8001fe6:	699a      	ldr	r2, [r3, #24]
 8001fe8:	9202      	str	r2, [sp, #8]
 8001fea:	9a02      	ldr	r2, [sp, #8]
 8001fec:	681a      	ldr	r2, [r3, #0]
 8001fee:	f442 7200 	orr.w	r2, r2, #512	; 0x200
 8001ff2:	601a      	str	r2, [r3, #0]
 8001ff4:	e019      	b.n	800202a <HAL_I2C_EV_IRQHandler+0x1aa>
 8001ff6:	8d61      	ldrh	r1, [r4, #42]	; 0x2a
 8001ff8:	b289      	uxth	r1, r1
 8001ffa:	2901      	cmp	r1, #1
 8001ffc:	d149      	bne.n	8002092 <HAL_I2C_EV_IRQHandler+0x212>
 8001ffe:	f512 3f80 	cmn.w	r2, #65536	; 0x10000
 8002002:	d11b      	bne.n	800203c <HAL_I2C_EV_IRQHandler+0x1bc>
 8002004:	681a      	ldr	r2, [r3, #0]
 8002006:	f422 6280 	bic.w	r2, r2, #1024	; 0x400
 800200a:	601a      	str	r2, [r3, #0]
 800200c:	685a      	ldr	r2, [r3, #4]
 800200e:	f412 6200 	ands.w	r2, r2, #2048	; 0x800
 8002012:	d00c      	beq.n	800202e <HAL_I2C_EV_IRQHandler+0x1ae>
 8002014:	681a      	ldr	r2, [r3, #0]
 8002016:	f422 6280 	bic.w	r2, r2, #1024	; 0x400
 800201a:	601a      	str	r2, [r3, #0]
 800201c:	2200      	movs	r2, #0
 800201e:	9203      	str	r2, [sp, #12]
 8002020:	695a      	ldr	r2, [r3, #20]
 8002022:	9203      	str	r2, [sp, #12]
 8002024:	699b      	ldr	r3, [r3, #24]
 8002026:	9303      	str	r3, [sp, #12]
 8002028:	9b03      	ldr	r3, [sp, #12]
 800202a:	2300      	movs	r3, #0
 800202c:	e7d3      	b.n	8001fd6 <HAL_I2C_EV_IRQHandler+0x156>
 800202e:	9204      	str	r2, [sp, #16]
 8002030:	695a      	ldr	r2, [r3, #20]
 8002032:	9204      	str	r2, [sp, #16]
 8002034:	699a      	ldr	r2, [r3, #24]
 8002036:	9204      	str	r2, [sp, #16]
 8002038:	9a04      	ldr	r2, [sp, #16]
 800203a:	e7d7      	b.n	8001fec <HAL_I2C_EV_IRQHandler+0x16c>
 800203c:	2a08      	cmp	r2, #8
 800203e:	d01c      	beq.n	800207a <HAL_I2C_EV_IRQHandler+0x1fa>
 8002040:	2a20      	cmp	r2, #32
 8002042:	d01a      	beq.n	800207a <HAL_I2C_EV_IRQHandler+0x1fa>
 8002044:	2d12      	cmp	r5, #18
 8002046:	d10d      	bne.n	8002064 <HAL_I2C_EV_IRQHandler+0x1e4>
 8002048:	2a01      	cmp	r2, #1
 800204a:	d116      	bne.n	800207a <HAL_I2C_EV_IRQHandler+0x1fa>
 800204c:	681a      	ldr	r2, [r3, #0]
 800204e:	f422 6280 	bic.w	r2, r2, #1024	; 0x400
 8002052:	601a      	str	r2, [r3, #0]
 8002054:	2200      	movs	r2, #0
 8002056:	9205      	str	r2, [sp, #20]
 8002058:	695a      	ldr	r2, [r3, #20]
 800205a:	9205      	str	r2, [sp, #20]
 800205c:	699b      	ldr	r3, [r3, #24]
 800205e:	9305      	str	r3, [sp, #20]
 8002060:	9b05      	ldr	r3, [sp, #20]
 8002062:	e7e2      	b.n	800202a <HAL_I2C_EV_IRQHandler+0x1aa>
 8002064:	2a10      	cmp	r2, #16
 8002066:	d8f1      	bhi.n	800204c <HAL_I2C_EV_IRQHandler+0x1cc>
 8002068:	4997      	ldr	r1, [pc, #604]	; (80022c8 <HAL_I2C_EV_IRQHandler+0x448>)
 800206a:	fa21 f202 	lsr.w	r2, r1, r2
 800206e:	07d5      	lsls	r5, r2, #31
 8002070:	d5ec      	bpl.n	800204c <HAL_I2C_EV_IRQHandler+0x1cc>
 8002072:	681a      	ldr	r2, [r3, #0]
 8002074:	f442 6280 	orr.w	r2, r2, #1024	; 0x400
 8002078:	e7eb      	b.n	8002052 <HAL_I2C_EV_IRQHandler+0x1d2>
 800207a:	681a      	ldr	r2, [r3, #0]
 800207c:	f422 6280 	bic.w	r2, r2, #1024	; 0x400
 8002080:	601a      	str	r2, [r3, #0]
 8002082:	2200      	movs	r2, #0
 8002084:	9206      	str	r2, [sp, #24]
 8002086:	695a      	ldr	r2, [r3, #20]
 8002088:	9206      	str	r2, [sp, #24]
 800208a:	699a      	ldr	r2, [r3, #24]
 800208c:	9206      	str	r2, [sp, #24]
 800208e:	9a06      	ldr	r2, [sp, #24]
 8002090:	e7ac      	b.n	8001fec <HAL_I2C_EV_IRQHandler+0x16c>
 8002092:	8d61      	ldrh	r1, [r4, #42]	; 0x2a
 8002094:	b289      	uxth	r1, r1
 8002096:	2902      	cmp	r1, #2
 8002098:	d12a      	bne.n	80020f0 <HAL_I2C_EV_IRQHandler+0x270>
 800209a:	2a10      	cmp	r2, #16
 800209c:	d803      	bhi.n	80020a6 <HAL_I2C_EV_IRQHandler+0x226>
 800209e:	498a      	ldr	r1, [pc, #552]	; (80022c8 <HAL_I2C_EV_IRQHandler+0x448>)
 80020a0:	40d1      	lsrs	r1, r2
 80020a2:	07c8      	lsls	r0, r1, #31
 80020a4:	d420      	bmi.n	80020e8 <HAL_I2C_EV_IRQHandler+0x268>
 80020a6:	6819      	ldr	r1, [r3, #0]
 80020a8:	f421 6180 	bic.w	r1, r1, #1024	; 0x400
 80020ac:	6019      	str	r1, [r3, #0]
 80020ae:	6819      	ldr	r1, [r3, #0]
 80020b0:	f441 6100 	orr.w	r1, r1, #2048	; 0x800
 80020b4:	6019      	str	r1, [r3, #0]
 80020b6:	6859      	ldr	r1, [r3, #4]
 80020b8:	0509      	lsls	r1, r1, #20
 80020ba:	d50d      	bpl.n	80020d8 <HAL_I2C_EV_IRQHandler+0x258>
 80020bc:	f512 3f80 	cmn.w	r2, #65536	; 0x10000
 80020c0:	d006      	beq.n	80020d0 <HAL_I2C_EV_IRQHandler+0x250>
 80020c2:	1e51      	subs	r1, r2, #1
 80020c4:	291f      	cmp	r1, #31
 80020c6:	d807      	bhi.n	80020d8 <HAL_I2C_EV_IRQHandler+0x258>
 80020c8:	4a80      	ldr	r2, [pc, #512]	; (80022cc <HAL_I2C_EV_IRQHandler+0x44c>)
 80020ca:	40ca      	lsrs	r2, r1
 80020cc:	07d2      	lsls	r2, r2, #31
 80020ce:	d503      	bpl.n	80020d8 <HAL_I2C_EV_IRQHandler+0x258>
 80020d0:	685a      	ldr	r2, [r3, #4]
 80020d2:	f442 5280 	orr.w	r2, r2, #4096	; 0x1000
 80020d6:	605a      	str	r2, [r3, #4]
 80020d8:	2200      	movs	r2, #0
 80020da:	9207      	str	r2, [sp, #28]
 80020dc:	695a      	ldr	r2, [r3, #20]
 80020de:	9207      	str	r2, [sp, #28]
 80020e0:	699b      	ldr	r3, [r3, #24]
 80020e2:	9307      	str	r3, [sp, #28]
 80020e4:	9b07      	ldr	r3, [sp, #28]
 80020e6:	e7a0      	b.n	800202a <HAL_I2C_EV_IRQHandler+0x1aa>
 80020e8:	6819      	ldr	r1, [r3, #0]
 80020ea:	f441 6180 	orr.w	r1, r1, #1024	; 0x400
 80020ee:	e7e1      	b.n	80020b4 <HAL_I2C_EV_IRQHandler+0x234>
 80020f0:	6819      	ldr	r1, [r3, #0]
 80020f2:	f441 6180 	orr.w	r1, r1, #1024	; 0x400
 80020f6:	6019      	str	r1, [r3, #0]
 80020f8:	6859      	ldr	r1, [r3, #4]
 80020fa:	050e      	lsls	r6, r1, #20
 80020fc:	d50e      	bpl.n	800211c <HAL_I2C_EV_IRQHandler+0x29c>
 80020fe:	f512 3f80 	cmn.w	r2, #65536	; 0x10000
 8002102:	d007      	beq.n	8002114 <HAL_I2C_EV_IRQHandler+0x294>
 8002104:	3a01      	subs	r2, #1
 8002106:	2a1f      	cmp	r2, #31
 8002108:	d808      	bhi.n	800211c <HAL_I2C_EV_IRQHandler+0x29c>
 800210a:	4970      	ldr	r1, [pc, #448]	; (80022cc <HAL_I2C_EV_IRQHandler+0x44c>)
 800210c:	fa21 f202 	lsr.w	r2, r1, r2
 8002110:	07d5      	lsls	r5, r2, #31
 8002112:	d503      	bpl.n	800211c <HAL_I2C_EV_IRQHandler+0x29c>
 8002114:	685a      	ldr	r2, [r3, #4]
 8002116:	f442 5280 	orr.w	r2, r2, #4096	; 0x1000
 800211a:	605a      	str	r2, [r3, #4]
 800211c:	2200      	movs	r2, #0
 800211e:	9208      	str	r2, [sp, #32]
 8002120:	695a      	ldr	r2, [r3, #20]
 8002122:	9208      	str	r2, [sp, #32]
 8002124:	699b      	ldr	r3, [r3, #24]
 8002126:	9308      	str	r3, [sp, #32]
 8002128:	9b08      	ldr	r3, [sp, #32]
 800212a:	e77e      	b.n	800202a <HAL_I2C_EV_IRQHandler+0x1aa>
 800212c:	2200      	movs	r2, #0
 800212e:	9209      	str	r2, [sp, #36]	; 0x24
 8002130:	695a      	ldr	r2, [r3, #20]
 8002132:	9209      	str	r2, [sp, #36]	; 0x24
 8002134:	699b      	ldr	r3, [r3, #24]
 8002136:	9309      	str	r3, [sp, #36]	; 0x24
 8002138:	9b09      	ldr	r3, [sp, #36]	; 0x24
 800213a:	e6bd      	b.n	8001eb8 <HAL_I2C_EV_IRQHandler+0x38>
 800213c:	f010 0f04 	tst.w	r0, #4
 8002140:	6858      	ldr	r0, [r3, #4]
 8002142:	f000 8098 	beq.w	8002276 <HAL_I2C_EV_IRQHandler+0x3f6>
 8002146:	0500      	lsls	r0, r0, #20
 8002148:	f53f aeb6 	bmi.w	8001eb8 <HAL_I2C_EV_IRQHandler+0x38>
 800214c:	060e      	lsls	r6, r1, #24
 800214e:	f3c1 0080 	ubfx	r0, r1, #2, #1
 8002152:	d555      	bpl.n	8002200 <HAL_I2C_EV_IRQHandler+0x380>
 8002154:	0551      	lsls	r1, r2, #21
 8002156:	d553      	bpl.n	8002200 <HAL_I2C_EV_IRQHandler+0x380>
 8002158:	2800      	cmp	r0, #0
 800215a:	d154      	bne.n	8002206 <HAL_I2C_EV_IRQHandler+0x386>
 800215c:	f894 203d 	ldrb.w	r2, [r4, #61]	; 0x3d
 8002160:	8d25      	ldrh	r5, [r4, #40]	; 0x28
 8002162:	f894 103e 	ldrb.w	r1, [r4, #62]	; 0x3e
 8002166:	6ae0      	ldr	r0, [r4, #44]	; 0x2c
 8002168:	b2d2      	uxtb	r2, r2
 800216a:	b2c9      	uxtb	r1, r1
 800216c:	bb7d      	cbnz	r5, 80021ce <HAL_I2C_EV_IRQHandler+0x34e>
 800216e:	2a21      	cmp	r2, #33	; 0x21
 8002170:	d12f      	bne.n	80021d2 <HAL_I2C_EV_IRQHandler+0x352>
 8002172:	2808      	cmp	r0, #8
 8002174:	d014      	beq.n	80021a0 <HAL_I2C_EV_IRQHandler+0x320>
 8002176:	2820      	cmp	r0, #32
 8002178:	d012      	beq.n	80021a0 <HAL_I2C_EV_IRQHandler+0x320>
 800217a:	f510 3f80 	cmn.w	r0, #65536	; 0x10000
 800217e:	d00f      	beq.n	80021a0 <HAL_I2C_EV_IRQHandler+0x320>
 8002180:	685a      	ldr	r2, [r3, #4]
 8002182:	f422 62e0 	bic.w	r2, r2, #1792	; 0x700
 8002186:	605a      	str	r2, [r3, #4]
 8002188:	2311      	movs	r3, #17
 800218a:	6323      	str	r3, [r4, #48]	; 0x30
 800218c:	2300      	movs	r3, #0
 800218e:	f884 303e 	strb.w	r3, [r4, #62]	; 0x3e
 8002192:	2320      	movs	r3, #32
 8002194:	f884 303d 	strb.w	r3, [r4, #61]	; 0x3d
 8002198:	4620      	mov	r0, r4
 800219a:	f7ff fc6a 	bl	8001a72 <HAL_I2C_MasterTxCpltCallback>
 800219e:	e68b      	b.n	8001eb8 <HAL_I2C_EV_IRQHandler+0x38>
 80021a0:	685a      	ldr	r2, [r3, #4]
 80021a2:	f422 62e0 	bic.w	r2, r2, #1792	; 0x700
 80021a6:	605a      	str	r2, [r3, #4]
 80021a8:	681a      	ldr	r2, [r3, #0]
 80021aa:	f442 7200 	orr.w	r2, r2, #512	; 0x200
 80021ae:	601a      	str	r2, [r3, #0]
 80021b0:	2300      	movs	r3, #0
 80021b2:	2220      	movs	r2, #32
 80021b4:	6323      	str	r3, [r4, #48]	; 0x30
 80021b6:	f884 203d 	strb.w	r2, [r4, #61]	; 0x3d
 80021ba:	f894 203e 	ldrb.w	r2, [r4, #62]	; 0x3e
 80021be:	f884 303e 	strb.w	r3, [r4, #62]	; 0x3e
 80021c2:	2a40      	cmp	r2, #64	; 0x40
 80021c4:	4620      	mov	r0, r4
 80021c6:	d1e8      	bne.n	800219a <HAL_I2C_EV_IRQHandler+0x31a>
 80021c8:	f7ff fc57 	bl	8001a7a <HAL_I2C_MemTxCpltCallback>
 80021cc:	e674      	b.n	8001eb8 <HAL_I2C_EV_IRQHandler+0x38>
 80021ce:	2a21      	cmp	r2, #33	; 0x21
 80021d0:	d005      	beq.n	80021de <HAL_I2C_EV_IRQHandler+0x35e>
 80021d2:	2940      	cmp	r1, #64	; 0x40
 80021d4:	f47f ae70 	bne.w	8001eb8 <HAL_I2C_EV_IRQHandler+0x38>
 80021d8:	2a22      	cmp	r2, #34	; 0x22
 80021da:	f47f ae6d 	bne.w	8001eb8 <HAL_I2C_EV_IRQHandler+0x38>
 80021de:	8d62      	ldrh	r2, [r4, #42]	; 0x2a
 80021e0:	b292      	uxth	r2, r2
 80021e2:	b91a      	cbnz	r2, 80021ec <HAL_I2C_EV_IRQHandler+0x36c>
 80021e4:	685a      	ldr	r2, [r3, #4]
 80021e6:	f422 6280 	bic.w	r2, r2, #1024	; 0x400
 80021ea:	e6a1      	b.n	8001f30 <HAL_I2C_EV_IRQHandler+0xb0>
 80021ec:	f894 203e 	ldrb.w	r2, [r4, #62]	; 0x3e
 80021f0:	2a40      	cmp	r2, #64	; 0x40
 80021f2:	d116      	bne.n	8002222 <HAL_I2C_EV_IRQHandler+0x3a2>
 80021f4:	4620      	mov	r0, r4
 80021f6:	b00c      	add	sp, #48	; 0x30
 80021f8:	e8bd 4070 	ldmia.w	sp!, {r4, r5, r6, lr}
 80021fc:	f7ff bc3e 	b.w	8001a7c <I2C_MemoryTransmit_TXE_BTF>
 8002200:	2800      	cmp	r0, #0
 8002202:	f43f ae59 	beq.w	8001eb8 <HAL_I2C_EV_IRQHandler+0x38>
 8002206:	0592      	lsls	r2, r2, #22
 8002208:	f57f ae56 	bpl.w	8001eb8 <HAL_I2C_EV_IRQHandler+0x38>
 800220c:	2d10      	cmp	r5, #16
 800220e:	d1f1      	bne.n	80021f4 <HAL_I2C_EV_IRQHandler+0x374>
 8002210:	6ae1      	ldr	r1, [r4, #44]	; 0x2c
 8002212:	f894 203d 	ldrb.w	r2, [r4, #61]	; 0x3d
 8002216:	2a21      	cmp	r2, #33	; 0x21
 8002218:	f47f ae4e 	bne.w	8001eb8 <HAL_I2C_EV_IRQHandler+0x38>
 800221c:	8d62      	ldrh	r2, [r4, #42]	; 0x2a
 800221e:	b292      	uxth	r2, r2
 8002220:	b14a      	cbz	r2, 8002236 <HAL_I2C_EV_IRQHandler+0x3b6>
 8002222:	6a62      	ldr	r2, [r4, #36]	; 0x24
 8002224:	f812 1b01 	ldrb.w	r1, [r2], #1
 8002228:	6119      	str	r1, [r3, #16]
 800222a:	6262      	str	r2, [r4, #36]	; 0x24
 800222c:	8d63      	ldrh	r3, [r4, #42]	; 0x2a
 800222e:	3b01      	subs	r3, #1
 8002230:	b29b      	uxth	r3, r3
 8002232:	8563      	strh	r3, [r4, #42]	; 0x2a
 8002234:	e640      	b.n	8001eb8 <HAL_I2C_EV_IRQHandler+0x38>
 8002236:	2908      	cmp	r1, #8
 8002238:	d00d      	beq.n	8002256 <HAL_I2C_EV_IRQHandler+0x3d6>
 800223a:	2920      	cmp	r1, #32
 800223c:	d00b      	beq.n	8002256 <HAL_I2C_EV_IRQHandler+0x3d6>
 800223e:	f511 3f80 	cmn.w	r1, #65536	; 0x10000
 8002242:	d008      	beq.n	8002256 <HAL_I2C_EV_IRQHandler+0x3d6>
 8002244:	6859      	ldr	r1, [r3, #4]
 8002246:	f421 61e0 	bic.w	r1, r1, #1792	; 0x700
 800224a:	6059      	str	r1, [r3, #4]
 800224c:	2311      	movs	r3, #17
 800224e:	6323      	str	r3, [r4, #48]	; 0x30
 8002250:	f884 203e 	strb.w	r2, [r4, #62]	; 0x3e
 8002254:	e79d      	b.n	8002192 <HAL_I2C_EV_IRQHandler+0x312>
 8002256:	685a      	ldr	r2, [r3, #4]
 8002258:	f422 62e0 	bic.w	r2, r2, #1792	; 0x700
 800225c:	605a      	str	r2, [r3, #4]
 800225e:	681a      	ldr	r2, [r3, #0]
 8002260:	f442 7200 	orr.w	r2, r2, #512	; 0x200
 8002264:	601a      	str	r2, [r3, #0]
 8002266:	2300      	movs	r3, #0
 8002268:	2220      	movs	r2, #32
 800226a:	6323      	str	r3, [r4, #48]	; 0x30
 800226c:	f884 203d 	strb.w	r2, [r4, #61]	; 0x3d
 8002270:	f884 303e 	strb.w	r3, [r4, #62]	; 0x3e
 8002274:	e790      	b.n	8002198 <HAL_I2C_EV_IRQHandler+0x318>
 8002276:	0506      	lsls	r6, r0, #20
 8002278:	f53f ae1e 	bmi.w	8001eb8 <HAL_I2C_EV_IRQHandler+0x38>
 800227c:	064d      	lsls	r5, r1, #25
 800227e:	f3c1 0080 	ubfx	r0, r1, #2, #1
 8002282:	d57a      	bpl.n	800237a <HAL_I2C_EV_IRQHandler+0x4fa>
 8002284:	0551      	lsls	r1, r2, #21
 8002286:	d578      	bpl.n	800237a <HAL_I2C_EV_IRQHandler+0x4fa>
 8002288:	2800      	cmp	r0, #0
 800228a:	d179      	bne.n	8002380 <HAL_I2C_EV_IRQHandler+0x500>
 800228c:	f894 203d 	ldrb.w	r2, [r4, #61]	; 0x3d
 8002290:	2a22      	cmp	r2, #34	; 0x22
 8002292:	f47f ae11 	bne.w	8001eb8 <HAL_I2C_EV_IRQHandler+0x38>
 8002296:	8d62      	ldrh	r2, [r4, #42]	; 0x2a
 8002298:	b292      	uxth	r2, r2
 800229a:	2a03      	cmp	r2, #3
 800229c:	d918      	bls.n	80022d0 <HAL_I2C_EV_IRQHandler+0x450>
 800229e:	691a      	ldr	r2, [r3, #16]
 80022a0:	6a63      	ldr	r3, [r4, #36]	; 0x24
 80022a2:	701a      	strb	r2, [r3, #0]
 80022a4:	6a63      	ldr	r3, [r4, #36]	; 0x24
 80022a6:	3301      	adds	r3, #1
 80022a8:	6263      	str	r3, [r4, #36]	; 0x24
 80022aa:	8d63      	ldrh	r3, [r4, #42]	; 0x2a
 80022ac:	3b01      	subs	r3, #1
 80022ae:	b29b      	uxth	r3, r3
 80022b0:	8563      	strh	r3, [r4, #42]	; 0x2a
 80022b2:	8d63      	ldrh	r3, [r4, #42]	; 0x2a
 80022b4:	b29b      	uxth	r3, r3
 80022b6:	2b03      	cmp	r3, #3
 80022b8:	f47f adfe 	bne.w	8001eb8 <HAL_I2C_EV_IRQHandler+0x38>
 80022bc:	6822      	ldr	r2, [r4, #0]
 80022be:	6853      	ldr	r3, [r2, #4]
 80022c0:	f423 6380 	bic.w	r3, r3, #1024	; 0x400
 80022c4:	6053      	str	r3, [r2, #4]
 80022c6:	e5f7      	b.n	8001eb8 <HAL_I2C_EV_IRQHandler+0x38>
 80022c8:	00010014 	.word	0x00010014
 80022cc:	80008081 	.word	0x80008081
 80022d0:	6ae1      	ldr	r1, [r4, #44]	; 0x2c
 80022d2:	2902      	cmp	r1, #2
 80022d4:	f43f adf0 	beq.w	8001eb8 <HAL_I2C_EV_IRQHandler+0x38>
 80022d8:	2a01      	cmp	r2, #1
 80022da:	f63f aded 	bhi.w	8001eb8 <HAL_I2C_EV_IRQHandler+0x38>
 80022de:	4a73      	ldr	r2, [pc, #460]	; (80024ac <HAL_I2C_EV_IRQHandler+0x62c>)
 80022e0:	900a      	str	r0, [sp, #40]	; 0x28
 80022e2:	6812      	ldr	r2, [r2, #0]
 80022e4:	f246 11a8 	movw	r1, #25000	; 0x61a8
 80022e8:	fbb2 f2f1 	udiv	r2, r2, r1
 80022ec:	eb02 0282 	add.w	r2, r2, r2, lsl #2
 80022f0:	920a      	str	r2, [sp, #40]	; 0x28
 80022f2:	9a0a      	ldr	r2, [sp, #40]	; 0x28
 80022f4:	3a01      	subs	r2, #1
 80022f6:	920a      	str	r2, [sp, #40]	; 0x28
 80022f8:	990a      	ldr	r1, [sp, #40]	; 0x28
 80022fa:	b9d1      	cbnz	r1, 8002332 <HAL_I2C_EV_IRQHandler+0x4b2>
 80022fc:	6c22      	ldr	r2, [r4, #64]	; 0x40
 80022fe:	f042 0220 	orr.w	r2, r2, #32
 8002302:	6422      	str	r2, [r4, #64]	; 0x40
 8002304:	685a      	ldr	r2, [r3, #4]
 8002306:	f422 62e0 	bic.w	r2, r2, #1792	; 0x700
 800230a:	605a      	str	r2, [r3, #4]
 800230c:	691a      	ldr	r2, [r3, #16]
 800230e:	6a63      	ldr	r3, [r4, #36]	; 0x24
 8002310:	701a      	strb	r2, [r3, #0]
 8002312:	6a63      	ldr	r3, [r4, #36]	; 0x24
 8002314:	3301      	adds	r3, #1
 8002316:	6263      	str	r3, [r4, #36]	; 0x24
 8002318:	8d63      	ldrh	r3, [r4, #42]	; 0x2a
 800231a:	3b01      	subs	r3, #1
 800231c:	b29b      	uxth	r3, r3
 800231e:	8563      	strh	r3, [r4, #42]	; 0x2a
 8002320:	2320      	movs	r3, #32
 8002322:	f884 303d 	strb.w	r3, [r4, #61]	; 0x3d
 8002326:	4620      	mov	r0, r4
 8002328:	f884 103e 	strb.w	r1, [r4, #62]	; 0x3e
 800232c:	f7ff fbf8 	bl	8001b20 <HAL_I2C_ErrorCallback>
 8002330:	e5c2      	b.n	8001eb8 <HAL_I2C_EV_IRQHandler+0x38>
 8002332:	681a      	ldr	r2, [r3, #0]
 8002334:	f412 7200 	ands.w	r2, r2, #512	; 0x200
 8002338:	d1db      	bne.n	80022f2 <HAL_I2C_EV_IRQHandler+0x472>
 800233a:	6819      	ldr	r1, [r3, #0]
 800233c:	f421 6180 	bic.w	r1, r1, #1024	; 0x400
 8002340:	6019      	str	r1, [r3, #0]
 8002342:	6859      	ldr	r1, [r3, #4]
 8002344:	f421 61e0 	bic.w	r1, r1, #1792	; 0x700
 8002348:	6059      	str	r1, [r3, #4]
 800234a:	6919      	ldr	r1, [r3, #16]
 800234c:	6a63      	ldr	r3, [r4, #36]	; 0x24
 800234e:	7019      	strb	r1, [r3, #0]
 8002350:	6a63      	ldr	r3, [r4, #36]	; 0x24
 8002352:	3301      	adds	r3, #1
 8002354:	6263      	str	r3, [r4, #36]	; 0x24
 8002356:	8d63      	ldrh	r3, [r4, #42]	; 0x2a
 8002358:	3b01      	subs	r3, #1
 800235a:	b29b      	uxth	r3, r3
 800235c:	8563      	strh	r3, [r4, #42]	; 0x2a
 800235e:	2320      	movs	r3, #32
 8002360:	f884 303d 	strb.w	r3, [r4, #61]	; 0x3d
 8002364:	f894 303e 	ldrb.w	r3, [r4, #62]	; 0x3e
 8002368:	f884 203e 	strb.w	r2, [r4, #62]	; 0x3e
 800236c:	2b40      	cmp	r3, #64	; 0x40
 800236e:	d168      	bne.n	8002442 <HAL_I2C_EV_IRQHandler+0x5c2>
 8002370:	6322      	str	r2, [r4, #48]	; 0x30
 8002372:	4620      	mov	r0, r4
 8002374:	f7ff fbd3 	bl	8001b1e <HAL_I2C_MemRxCpltCallback>
 8002378:	e59e      	b.n	8001eb8 <HAL_I2C_EV_IRQHandler+0x38>
 800237a:	2800      	cmp	r0, #0
 800237c:	f43f ad9c 	beq.w	8001eb8 <HAL_I2C_EV_IRQHandler+0x38>
 8002380:	0592      	lsls	r2, r2, #22
 8002382:	f57f ad99 	bpl.w	8001eb8 <HAL_I2C_EV_IRQHandler+0x38>
 8002386:	6ae2      	ldr	r2, [r4, #44]	; 0x2c
 8002388:	8d60      	ldrh	r0, [r4, #42]	; 0x2a
 800238a:	6a61      	ldr	r1, [r4, #36]	; 0x24
 800238c:	b280      	uxth	r0, r0
 800238e:	2804      	cmp	r0, #4
 8002390:	d109      	bne.n	80023a6 <HAL_I2C_EV_IRQHandler+0x526>
 8002392:	685a      	ldr	r2, [r3, #4]
 8002394:	f422 6280 	bic.w	r2, r2, #1024	; 0x400
 8002398:	605a      	str	r2, [r3, #4]
 800239a:	691b      	ldr	r3, [r3, #16]
 800239c:	700b      	strb	r3, [r1, #0]
 800239e:	6a63      	ldr	r3, [r4, #36]	; 0x24
 80023a0:	3301      	adds	r3, #1
 80023a2:	6263      	str	r3, [r4, #36]	; 0x24
 80023a4:	e742      	b.n	800222c <HAL_I2C_EV_IRQHandler+0x3ac>
 80023a6:	8d60      	ldrh	r0, [r4, #42]	; 0x2a
 80023a8:	b280      	uxth	r0, r0
 80023aa:	2803      	cmp	r0, #3
 80023ac:	d10c      	bne.n	80023c8 <HAL_I2C_EV_IRQHandler+0x548>
 80023ae:	6858      	ldr	r0, [r3, #4]
 80023b0:	2a04      	cmp	r2, #4
 80023b2:	f420 6080 	bic.w	r0, r0, #1024	; 0x400
 80023b6:	6058      	str	r0, [r3, #4]
 80023b8:	d0ef      	beq.n	800239a <HAL_I2C_EV_IRQHandler+0x51a>
 80023ba:	2a02      	cmp	r2, #2
 80023bc:	d0ed      	beq.n	800239a <HAL_I2C_EV_IRQHandler+0x51a>
 80023be:	681a      	ldr	r2, [r3, #0]
 80023c0:	f422 6280 	bic.w	r2, r2, #1024	; 0x400
 80023c4:	601a      	str	r2, [r3, #0]
 80023c6:	e7e8      	b.n	800239a <HAL_I2C_EV_IRQHandler+0x51a>
 80023c8:	8d60      	ldrh	r0, [r4, #42]	; 0x2a
 80023ca:	b280      	uxth	r0, r0
 80023cc:	2802      	cmp	r0, #2
 80023ce:	d1e4      	bne.n	800239a <HAL_I2C_EV_IRQHandler+0x51a>
 80023d0:	2a01      	cmp	r2, #1
 80023d2:	d001      	beq.n	80023d8 <HAL_I2C_EV_IRQHandler+0x558>
 80023d4:	2a10      	cmp	r2, #16
 80023d6:	d128      	bne.n	800242a <HAL_I2C_EV_IRQHandler+0x5aa>
 80023d8:	681a      	ldr	r2, [r3, #0]
 80023da:	f422 6280 	bic.w	r2, r2, #1024	; 0x400
 80023de:	601a      	str	r2, [r3, #0]
 80023e0:	691b      	ldr	r3, [r3, #16]
 80023e2:	700b      	strb	r3, [r1, #0]
 80023e4:	6a62      	ldr	r2, [r4, #36]	; 0x24
 80023e6:	1c53      	adds	r3, r2, #1
 80023e8:	6263      	str	r3, [r4, #36]	; 0x24
 80023ea:	8d63      	ldrh	r3, [r4, #42]	; 0x2a
 80023ec:	3b01      	subs	r3, #1
 80023ee:	b29b      	uxth	r3, r3
 80023f0:	8563      	strh	r3, [r4, #42]	; 0x2a
 80023f2:	6823      	ldr	r3, [r4, #0]
 80023f4:	691b      	ldr	r3, [r3, #16]
 80023f6:	7053      	strb	r3, [r2, #1]
 80023f8:	6a63      	ldr	r3, [r4, #36]	; 0x24
 80023fa:	6822      	ldr	r2, [r4, #0]
 80023fc:	3301      	adds	r3, #1
 80023fe:	6263      	str	r3, [r4, #36]	; 0x24
 8002400:	8d63      	ldrh	r3, [r4, #42]	; 0x2a
 8002402:	3b01      	subs	r3, #1
 8002404:	b29b      	uxth	r3, r3
 8002406:	8563      	strh	r3, [r4, #42]	; 0x2a
 8002408:	6853      	ldr	r3, [r2, #4]
 800240a:	f423 7340 	bic.w	r3, r3, #768	; 0x300
 800240e:	6053      	str	r3, [r2, #4]
 8002410:	2320      	movs	r3, #32
 8002412:	f884 303d 	strb.w	r3, [r4, #61]	; 0x3d
 8002416:	f894 303e 	ldrb.w	r3, [r4, #62]	; 0x3e
 800241a:	2b40      	cmp	r3, #64	; 0x40
 800241c:	f04f 0300 	mov.w	r3, #0
 8002420:	f884 303e 	strb.w	r3, [r4, #62]	; 0x3e
 8002424:	d10d      	bne.n	8002442 <HAL_I2C_EV_IRQHandler+0x5c2>
 8002426:	6323      	str	r3, [r4, #48]	; 0x30
 8002428:	e7a3      	b.n	8002372 <HAL_I2C_EV_IRQHandler+0x4f2>
 800242a:	2a04      	cmp	r2, #4
 800242c:	d001      	beq.n	8002432 <HAL_I2C_EV_IRQHandler+0x5b2>
 800242e:	2a02      	cmp	r2, #2
 8002430:	d103      	bne.n	800243a <HAL_I2C_EV_IRQHandler+0x5ba>
 8002432:	681a      	ldr	r2, [r3, #0]
 8002434:	f442 6280 	orr.w	r2, r2, #1024	; 0x400
 8002438:	e7d1      	b.n	80023de <HAL_I2C_EV_IRQHandler+0x55e>
 800243a:	681a      	ldr	r2, [r3, #0]
 800243c:	f442 7200 	orr.w	r2, r2, #512	; 0x200
 8002440:	e7cd      	b.n	80023de <HAL_I2C_EV_IRQHandler+0x55e>
 8002442:	2312      	movs	r3, #18
 8002444:	6323      	str	r3, [r4, #48]	; 0x30
 8002446:	4620      	mov	r0, r4
 8002448:	f7ff fb14 	bl	8001a74 <HAL_I2C_MasterRxCpltCallback>
 800244c:	e534      	b.n	8001eb8 <HAL_I2C_EV_IRQHandler+0x38>
 800244e:	6c21      	ldr	r1, [r4, #64]	; 0x40
 8002450:	b311      	cbz	r1, 8002498 <HAL_I2C_EV_IRQHandler+0x618>
 8002452:	6959      	ldr	r1, [r3, #20]
 8002454:	2500      	movs	r5, #0
 8002456:	078e      	lsls	r6, r1, #30
 8002458:	d52a      	bpl.n	80024b0 <HAL_I2C_EV_IRQHandler+0x630>
 800245a:	0596      	lsls	r6, r2, #22
 800245c:	d528      	bpl.n	80024b0 <HAL_I2C_EV_IRQHandler+0x630>
 800245e:	6c22      	ldr	r2, [r4, #64]	; 0x40
 8002460:	b102      	cbz	r2, 8002464 <HAL_I2C_EV_IRQHandler+0x5e4>
 8002462:	699d      	ldr	r5, [r3, #24]
 8002464:	f894 203d 	ldrb.w	r2, [r4, #61]	; 0x3d
 8002468:	f002 0228 	and.w	r2, r2, #40	; 0x28
 800246c:	2a28      	cmp	r2, #40	; 0x28
 800246e:	d116      	bne.n	800249e <HAL_I2C_EV_IRQHandler+0x61e>
 8002470:	685a      	ldr	r2, [r3, #4]
 8002472:	f422 6280 	bic.w	r2, r2, #1024	; 0x400
 8002476:	605a      	str	r2, [r3, #4]
 8002478:	ea6f 0195 	mvn.w	r1, r5, lsr #2
 800247c:	062b      	lsls	r3, r5, #24
 800247e:	f04f 0300 	mov.w	r3, #0
 8002482:	f001 0101 	and.w	r1, r1, #1
 8002486:	bf54      	ite	pl
 8002488:	89a2      	ldrhpl	r2, [r4, #12]
 800248a:	8b22      	ldrhmi	r2, [r4, #24]
 800248c:	f884 303c 	strb.w	r3, [r4, #60]	; 0x3c
 8002490:	4620      	mov	r0, r4
 8002492:	f7fe f9e3 	bl	800085c <HAL_I2C_AddrCallback>
 8002496:	e50f      	b.n	8001eb8 <HAL_I2C_EV_IRQHandler+0x38>
 8002498:	699d      	ldr	r5, [r3, #24]
 800249a:	6959      	ldr	r1, [r3, #20]
 800249c:	e7db      	b.n	8002456 <HAL_I2C_EV_IRQHandler+0x5d6>
 800249e:	f06f 0202 	mvn.w	r2, #2
 80024a2:	615a      	str	r2, [r3, #20]
 80024a4:	2300      	movs	r3, #0
 80024a6:	f884 303c 	strb.w	r3, [r4, #60]	; 0x3c
 80024aa:	e505      	b.n	8001eb8 <HAL_I2C_EV_IRQHandler+0x38>
 80024ac:	2000000c 	.word	0x2000000c
 80024b0:	06ce      	lsls	r6, r1, #27
 80024b2:	f140 80b1 	bpl.w	8002618 <HAL_I2C_EV_IRQHandler+0x798>
 80024b6:	0595      	lsls	r5, r2, #22
 80024b8:	f140 80ae 	bpl.w	8002618 <HAL_I2C_EV_IRQHandler+0x798>
 80024bc:	f894 503d 	ldrb.w	r5, [r4, #61]	; 0x3d
 80024c0:	685a      	ldr	r2, [r3, #4]
 80024c2:	f422 62e0 	bic.w	r2, r2, #1792	; 0x700
 80024c6:	605a      	str	r2, [r3, #4]
 80024c8:	2200      	movs	r2, #0
 80024ca:	920b      	str	r2, [sp, #44]	; 0x2c
 80024cc:	695a      	ldr	r2, [r3, #20]
 80024ce:	920b      	str	r2, [sp, #44]	; 0x2c
 80024d0:	681a      	ldr	r2, [r3, #0]
 80024d2:	f042 0201 	orr.w	r2, r2, #1
 80024d6:	601a      	str	r2, [r3, #0]
 80024d8:	9a0b      	ldr	r2, [sp, #44]	; 0x2c
 80024da:	681a      	ldr	r2, [r3, #0]
 80024dc:	f422 6280 	bic.w	r2, r2, #1024	; 0x400
 80024e0:	601a      	str	r2, [r3, #0]
 80024e2:	685a      	ldr	r2, [r3, #4]
 80024e4:	0512      	lsls	r2, r2, #20
 80024e6:	b2ed      	uxtb	r5, r5
 80024e8:	d520      	bpl.n	800252c <HAL_I2C_EV_IRQHandler+0x6ac>
 80024ea:	f005 02f7 	and.w	r2, r5, #247	; 0xf7
 80024ee:	2a22      	cmp	r2, #34	; 0x22
 80024f0:	d14a      	bne.n	8002588 <HAL_I2C_EV_IRQHandler+0x708>
 80024f2:	6ba0      	ldr	r0, [r4, #56]	; 0x38
 80024f4:	6802      	ldr	r2, [r0, #0]
 80024f6:	6852      	ldr	r2, [r2, #4]
 80024f8:	b292      	uxth	r2, r2
 80024fa:	8562      	strh	r2, [r4, #42]	; 0x2a
 80024fc:	8d62      	ldrh	r2, [r4, #42]	; 0x2a
 80024fe:	b292      	uxth	r2, r2
 8002500:	b11a      	cbz	r2, 800250a <HAL_I2C_EV_IRQHandler+0x68a>
 8002502:	6c22      	ldr	r2, [r4, #64]	; 0x40
 8002504:	f042 0204 	orr.w	r2, r2, #4
 8002508:	6422      	str	r2, [r4, #64]	; 0x40
 800250a:	685a      	ldr	r2, [r3, #4]
 800250c:	f422 6200 	bic.w	r2, r2, #2048	; 0x800
 8002510:	605a      	str	r2, [r3, #4]
 8002512:	f7fe fec1 	bl	8001298 <HAL_DMA_GetState>
 8002516:	2801      	cmp	r0, #1
 8002518:	d008      	beq.n	800252c <HAL_I2C_EV_IRQHandler+0x6ac>
 800251a:	6ba0      	ldr	r0, [r4, #56]	; 0x38
 800251c:	4b79      	ldr	r3, [pc, #484]	; (8002704 <HAL_I2C_EV_IRQHandler+0x884>)
 800251e:	6503      	str	r3, [r0, #80]	; 0x50
 8002520:	f7fe fdea 	bl	80010f8 <HAL_DMA_Abort_IT>
 8002524:	b110      	cbz	r0, 800252c <HAL_I2C_EV_IRQHandler+0x6ac>
 8002526:	6ba0      	ldr	r0, [r4, #56]	; 0x38
 8002528:	6d03      	ldr	r3, [r0, #80]	; 0x50
 800252a:	4798      	blx	r3
 800252c:	8d63      	ldrh	r3, [r4, #42]	; 0x2a
 800252e:	b29b      	uxth	r3, r3
 8002530:	b313      	cbz	r3, 8002578 <HAL_I2C_EV_IRQHandler+0x6f8>
 8002532:	6823      	ldr	r3, [r4, #0]
 8002534:	695a      	ldr	r2, [r3, #20]
 8002536:	0756      	lsls	r6, r2, #29
 8002538:	d509      	bpl.n	800254e <HAL_I2C_EV_IRQHandler+0x6ce>
 800253a:	691a      	ldr	r2, [r3, #16]
 800253c:	6a63      	ldr	r3, [r4, #36]	; 0x24
 800253e:	701a      	strb	r2, [r3, #0]
 8002540:	6a63      	ldr	r3, [r4, #36]	; 0x24
 8002542:	3301      	adds	r3, #1
 8002544:	6263      	str	r3, [r4, #36]	; 0x24
 8002546:	8d63      	ldrh	r3, [r4, #42]	; 0x2a
 8002548:	3b01      	subs	r3, #1
 800254a:	b29b      	uxth	r3, r3
 800254c:	8563      	strh	r3, [r4, #42]	; 0x2a
 800254e:	6823      	ldr	r3, [r4, #0]
 8002550:	695a      	ldr	r2, [r3, #20]
 8002552:	0650      	lsls	r0, r2, #25
 8002554:	d509      	bpl.n	800256a <HAL_I2C_EV_IRQHandler+0x6ea>
 8002556:	691a      	ldr	r2, [r3, #16]
 8002558:	6a63      	ldr	r3, [r4, #36]	; 0x24
 800255a:	701a      	strb	r2, [r3, #0]
 800255c:	6a63      	ldr	r3, [r4, #36]	; 0x24
 800255e:	3301      	adds	r3, #1
 8002560:	6263      	str	r3, [r4, #36]	; 0x24
 8002562:	8d63      	ldrh	r3, [r4, #42]	; 0x2a
 8002564:	3b01      	subs	r3, #1
 8002566:	b29b      	uxth	r3, r3
 8002568:	8563      	strh	r3, [r4, #42]	; 0x2a
 800256a:	8d63      	ldrh	r3, [r4, #42]	; 0x2a
 800256c:	b29b      	uxth	r3, r3
 800256e:	b11b      	cbz	r3, 8002578 <HAL_I2C_EV_IRQHandler+0x6f8>
 8002570:	6c23      	ldr	r3, [r4, #64]	; 0x40
 8002572:	f043 0304 	orr.w	r3, r3, #4
 8002576:	6423      	str	r3, [r4, #64]	; 0x40
 8002578:	6c23      	ldr	r3, [r4, #64]	; 0x40
 800257a:	b313      	cbz	r3, 80025c2 <HAL_I2C_EV_IRQHandler+0x742>
 800257c:	4620      	mov	r0, r4
 800257e:	b00c      	add	sp, #48	; 0x30
 8002580:	e8bd 4070 	ldmia.w	sp!, {r4, r5, r6, lr}
 8002584:	f7ff bbd4 	b.w	8001d30 <I2C_ITError>
 8002588:	6b60      	ldr	r0, [r4, #52]	; 0x34
 800258a:	6802      	ldr	r2, [r0, #0]
 800258c:	6852      	ldr	r2, [r2, #4]
 800258e:	b292      	uxth	r2, r2
 8002590:	8562      	strh	r2, [r4, #42]	; 0x2a
 8002592:	8d62      	ldrh	r2, [r4, #42]	; 0x2a
 8002594:	b292      	uxth	r2, r2
 8002596:	b11a      	cbz	r2, 80025a0 <HAL_I2C_EV_IRQHandler+0x720>
 8002598:	6c22      	ldr	r2, [r4, #64]	; 0x40
 800259a:	f042 0204 	orr.w	r2, r2, #4
 800259e:	6422      	str	r2, [r4, #64]	; 0x40
 80025a0:	685a      	ldr	r2, [r3, #4]
 80025a2:	f422 6200 	bic.w	r2, r2, #2048	; 0x800
 80025a6:	605a      	str	r2, [r3, #4]
 80025a8:	f7fe fe76 	bl	8001298 <HAL_DMA_GetState>
 80025ac:	2801      	cmp	r0, #1
 80025ae:	d0bd      	beq.n	800252c <HAL_I2C_EV_IRQHandler+0x6ac>
 80025b0:	6b60      	ldr	r0, [r4, #52]	; 0x34
 80025b2:	4b54      	ldr	r3, [pc, #336]	; (8002704 <HAL_I2C_EV_IRQHandler+0x884>)
 80025b4:	6503      	str	r3, [r0, #80]	; 0x50
 80025b6:	f7fe fd9f 	bl	80010f8 <HAL_DMA_Abort_IT>
 80025ba:	2800      	cmp	r0, #0
 80025bc:	d0b6      	beq.n	800252c <HAL_I2C_EV_IRQHandler+0x6ac>
 80025be:	6b60      	ldr	r0, [r4, #52]	; 0x34
 80025c0:	e7b2      	b.n	8002528 <HAL_I2C_EV_IRQHandler+0x6a8>
 80025c2:	2d2a      	cmp	r5, #42	; 0x2a
 80025c4:	d106      	bne.n	80025d4 <HAL_I2C_EV_IRQHandler+0x754>
 80025c6:	6323      	str	r3, [r4, #48]	; 0x30
 80025c8:	2328      	movs	r3, #40	; 0x28
 80025ca:	f884 303d 	strb.w	r3, [r4, #61]	; 0x3d
 80025ce:	4620      	mov	r0, r4
 80025d0:	f7ff fa52 	bl	8001a78 <HAL_I2C_SlaveRxCpltCallback>
 80025d4:	f894 303d 	ldrb.w	r3, [r4, #61]	; 0x3d
 80025d8:	2b28      	cmp	r3, #40	; 0x28
 80025da:	d10c      	bne.n	80025f6 <HAL_I2C_EV_IRQHandler+0x776>
 80025dc:	4b4a      	ldr	r3, [pc, #296]	; (8002708 <HAL_I2C_EV_IRQHandler+0x888>)
 80025de:	62e3      	str	r3, [r4, #44]	; 0x2c
 80025e0:	2220      	movs	r2, #32
 80025e2:	2300      	movs	r3, #0
 80025e4:	6323      	str	r3, [r4, #48]	; 0x30
 80025e6:	4620      	mov	r0, r4
 80025e8:	f884 203d 	strb.w	r2, [r4, #61]	; 0x3d
 80025ec:	f884 303e 	strb.w	r3, [r4, #62]	; 0x3e
 80025f0:	f7fe f962 	bl	80008b8 <HAL_I2C_ListenCpltCallback>
 80025f4:	e460      	b.n	8001eb8 <HAL_I2C_EV_IRQHandler+0x38>
 80025f6:	6b23      	ldr	r3, [r4, #48]	; 0x30
 80025f8:	2b22      	cmp	r3, #34	; 0x22
 80025fa:	d002      	beq.n	8002602 <HAL_I2C_EV_IRQHandler+0x782>
 80025fc:	2d22      	cmp	r5, #34	; 0x22
 80025fe:	f47f ac5b 	bne.w	8001eb8 <HAL_I2C_EV_IRQHandler+0x38>
 8002602:	2300      	movs	r3, #0
 8002604:	2220      	movs	r2, #32
 8002606:	6323      	str	r3, [r4, #48]	; 0x30
 8002608:	f884 203d 	strb.w	r2, [r4, #61]	; 0x3d
 800260c:	f884 303e 	strb.w	r3, [r4, #62]	; 0x3e
 8002610:	4620      	mov	r0, r4
 8002612:	f7ff fa31 	bl	8001a78 <HAL_I2C_SlaveRxCpltCallback>
 8002616:	e44f      	b.n	8001eb8 <HAL_I2C_EV_IRQHandler+0x38>
 8002618:	f000 00f7 	and.w	r0, r0, #247	; 0xf7
 800261c:	2821      	cmp	r0, #33	; 0x21
 800261e:	f3c1 0580 	ubfx	r5, r1, #2, #1
 8002622:	d135      	bne.n	8002690 <HAL_I2C_EV_IRQHandler+0x810>
 8002624:	0609      	lsls	r1, r1, #24
 8002626:	d527      	bpl.n	8002678 <HAL_I2C_EV_IRQHandler+0x7f8>
 8002628:	0556      	lsls	r6, r2, #21
 800262a:	d525      	bpl.n	8002678 <HAL_I2C_EV_IRQHandler+0x7f8>
 800262c:	bb3d      	cbnz	r5, 800267e <HAL_I2C_EV_IRQHandler+0x7fe>
 800262e:	f894 103d 	ldrb.w	r1, [r4, #61]	; 0x3d
 8002632:	8d62      	ldrh	r2, [r4, #42]	; 0x2a
 8002634:	b292      	uxth	r2, r2
 8002636:	b2c9      	uxtb	r1, r1
 8002638:	2a00      	cmp	r2, #0
 800263a:	f43f ac3d 	beq.w	8001eb8 <HAL_I2C_EV_IRQHandler+0x38>
 800263e:	6a62      	ldr	r2, [r4, #36]	; 0x24
 8002640:	f812 5b01 	ldrb.w	r5, [r2], #1
 8002644:	611d      	str	r5, [r3, #16]
 8002646:	6262      	str	r2, [r4, #36]	; 0x24
 8002648:	8d62      	ldrh	r2, [r4, #42]	; 0x2a
 800264a:	3a01      	subs	r2, #1
 800264c:	b292      	uxth	r2, r2
 800264e:	8562      	strh	r2, [r4, #42]	; 0x2a
 8002650:	8d62      	ldrh	r2, [r4, #42]	; 0x2a
 8002652:	b292      	uxth	r2, r2
 8002654:	2a00      	cmp	r2, #0
 8002656:	f47f ac2f 	bne.w	8001eb8 <HAL_I2C_EV_IRQHandler+0x38>
 800265a:	2929      	cmp	r1, #41	; 0x29
 800265c:	f47f ac2c 	bne.w	8001eb8 <HAL_I2C_EV_IRQHandler+0x38>
 8002660:	685a      	ldr	r2, [r3, #4]
 8002662:	f422 6280 	bic.w	r2, r2, #1024	; 0x400
 8002666:	605a      	str	r2, [r3, #4]
 8002668:	2328      	movs	r3, #40	; 0x28
 800266a:	6320      	str	r0, [r4, #48]	; 0x30
 800266c:	f884 303d 	strb.w	r3, [r4, #61]	; 0x3d
 8002670:	4620      	mov	r0, r4
 8002672:	f7ff fa00 	bl	8001a76 <HAL_I2C_SlaveTxCpltCallback>
 8002676:	e41f      	b.n	8001eb8 <HAL_I2C_EV_IRQHandler+0x38>
 8002678:	2d00      	cmp	r5, #0
 800267a:	f43f ac1d 	beq.w	8001eb8 <HAL_I2C_EV_IRQHandler+0x38>
 800267e:	0595      	lsls	r5, r2, #22
 8002680:	f57f ac1a 	bpl.w	8001eb8 <HAL_I2C_EV_IRQHandler+0x38>
 8002684:	8d62      	ldrh	r2, [r4, #42]	; 0x2a
 8002686:	b292      	uxth	r2, r2
 8002688:	2a00      	cmp	r2, #0
 800268a:	f47f adca 	bne.w	8002222 <HAL_I2C_EV_IRQHandler+0x3a2>
 800268e:	e413      	b.n	8001eb8 <HAL_I2C_EV_IRQHandler+0x38>
 8002690:	0648      	lsls	r0, r1, #25
 8002692:	d527      	bpl.n	80026e4 <HAL_I2C_EV_IRQHandler+0x864>
 8002694:	0551      	lsls	r1, r2, #21
 8002696:	d525      	bpl.n	80026e4 <HAL_I2C_EV_IRQHandler+0x864>
 8002698:	bb3d      	cbnz	r5, 80026ea <HAL_I2C_EV_IRQHandler+0x86a>
 800269a:	f894 203d 	ldrb.w	r2, [r4, #61]	; 0x3d
 800269e:	8d61      	ldrh	r1, [r4, #42]	; 0x2a
 80026a0:	b289      	uxth	r1, r1
 80026a2:	b2d2      	uxtb	r2, r2
 80026a4:	2900      	cmp	r1, #0
 80026a6:	f43f ac07 	beq.w	8001eb8 <HAL_I2C_EV_IRQHandler+0x38>
 80026aa:	6919      	ldr	r1, [r3, #16]
 80026ac:	6a63      	ldr	r3, [r4, #36]	; 0x24
 80026ae:	7019      	strb	r1, [r3, #0]
 80026b0:	6a63      	ldr	r3, [r4, #36]	; 0x24
 80026b2:	3301      	adds	r3, #1
 80026b4:	6263      	str	r3, [r4, #36]	; 0x24
 80026b6:	8d63      	ldrh	r3, [r4, #42]	; 0x2a
 80026b8:	3b01      	subs	r3, #1
 80026ba:	b29b      	uxth	r3, r3
 80026bc:	8563      	strh	r3, [r4, #42]	; 0x2a
 80026be:	8d63      	ldrh	r3, [r4, #42]	; 0x2a
 80026c0:	b29b      	uxth	r3, r3
 80026c2:	2b00      	cmp	r3, #0
 80026c4:	f47f abf8 	bne.w	8001eb8 <HAL_I2C_EV_IRQHandler+0x38>
 80026c8:	2a2a      	cmp	r2, #42	; 0x2a
 80026ca:	f47f abf5 	bne.w	8001eb8 <HAL_I2C_EV_IRQHandler+0x38>
 80026ce:	6822      	ldr	r2, [r4, #0]
 80026d0:	6853      	ldr	r3, [r2, #4]
 80026d2:	f423 6380 	bic.w	r3, r3, #1024	; 0x400
 80026d6:	6053      	str	r3, [r2, #4]
 80026d8:	2322      	movs	r3, #34	; 0x22
 80026da:	6323      	str	r3, [r4, #48]	; 0x30
 80026dc:	2328      	movs	r3, #40	; 0x28
 80026de:	f884 303d 	strb.w	r3, [r4, #61]	; 0x3d
 80026e2:	e795      	b.n	8002610 <HAL_I2C_EV_IRQHandler+0x790>
 80026e4:	2d00      	cmp	r5, #0
 80026e6:	f43f abe7 	beq.w	8001eb8 <HAL_I2C_EV_IRQHandler+0x38>
 80026ea:	0592      	lsls	r2, r2, #22
 80026ec:	f57f abe4 	bpl.w	8001eb8 <HAL_I2C_EV_IRQHandler+0x38>
 80026f0:	8d62      	ldrh	r2, [r4, #42]	; 0x2a
 80026f2:	b292      	uxth	r2, r2
 80026f4:	2a00      	cmp	r2, #0
 80026f6:	f43f abdf 	beq.w	8001eb8 <HAL_I2C_EV_IRQHandler+0x38>
 80026fa:	691a      	ldr	r2, [r3, #16]
 80026fc:	6a63      	ldr	r3, [r4, #36]	; 0x24
 80026fe:	701a      	strb	r2, [r3, #0]
 8002700:	e64d      	b.n	800239e <HAL_I2C_EV_IRQHandler+0x51e>
 8002702:	bf00      	nop
 8002704:	08001c71 	.word	0x08001c71
 8002708:	ffff0000 	.word	0xffff0000

0800270c <HAL_I2C_ER_IRQHandler>:
 800270c:	b5f8      	push	{r3, r4, r5, r6, r7, lr}
 800270e:	6803      	ldr	r3, [r0, #0]
 8002710:	695f      	ldr	r7, [r3, #20]
 8002712:	685e      	ldr	r6, [r3, #4]
 8002714:	f890 203e 	ldrb.w	r2, [r0, #62]	; 0x3e
 8002718:	f3c7 2500 	ubfx	r5, r7, #8, #1
 800271c:	4604      	mov	r4, r0
 800271e:	b2d2      	uxtb	r2, r2
 8002720:	b135      	cbz	r5, 8002730 <HAL_I2C_ER_IRQHandler+0x24>
 8002722:	f3c6 2500 	ubfx	r5, r6, #8, #1
 8002726:	b11d      	cbz	r5, 8002730 <HAL_I2C_ER_IRQHandler+0x24>
 8002728:	f46f 7180 	mvn.w	r1, #256	; 0x100
 800272c:	6159      	str	r1, [r3, #20]
 800272e:	2501      	movs	r5, #1
 8002730:	05b8      	lsls	r0, r7, #22
 8002732:	d506      	bpl.n	8002742 <HAL_I2C_ER_IRQHandler+0x36>
 8002734:	05f1      	lsls	r1, r6, #23
 8002736:	bf42      	ittt	mi
 8002738:	f46f 7100 	mvnmi.w	r1, #512	; 0x200
 800273c:	f045 0502 	orrmi.w	r5, r5, #2
 8002740:	6159      	strmi	r1, [r3, #20]
 8002742:	0578      	lsls	r0, r7, #21
 8002744:	d536      	bpl.n	80027b4 <HAL_I2C_ER_IRQHandler+0xa8>
 8002746:	05f1      	lsls	r1, r6, #23
 8002748:	d534      	bpl.n	80027b4 <HAL_I2C_ER_IRQHandler+0xa8>
 800274a:	8d60      	ldrh	r0, [r4, #42]	; 0x2a
 800274c:	f894 103d 	ldrb.w	r1, [r4, #61]	; 0x3d
 8002750:	f8d4 c030 	ldr.w	ip, [r4, #48]	; 0x30
 8002754:	2a20      	cmp	r2, #32
 8002756:	b280      	uxth	r0, r0
 8002758:	b2c9      	uxtb	r1, r1
 800275a:	d15b      	bne.n	8002814 <HAL_I2C_ER_IRQHandler+0x108>
 800275c:	2800      	cmp	r0, #0
 800275e:	d159      	bne.n	8002814 <HAL_I2C_ER_IRQHandler+0x108>
 8002760:	f001 00f7 	and.w	r0, r1, #247	; 0xf7
 8002764:	2821      	cmp	r0, #33	; 0x21
 8002766:	d004      	beq.n	8002772 <HAL_I2C_ER_IRQHandler+0x66>
 8002768:	2928      	cmp	r1, #40	; 0x28
 800276a:	d153      	bne.n	8002814 <HAL_I2C_ER_IRQHandler+0x108>
 800276c:	f1bc 0f21 	cmp.w	ip, #33	; 0x21
 8002770:	d150      	bne.n	8002814 <HAL_I2C_ER_IRQHandler+0x108>
 8002772:	f894 203d 	ldrb.w	r2, [r4, #61]	; 0x3d
 8002776:	6ae1      	ldr	r1, [r4, #44]	; 0x2c
 8002778:	2908      	cmp	r1, #8
 800277a:	b2d2      	uxtb	r2, r2
 800277c:	d001      	beq.n	8002782 <HAL_I2C_ER_IRQHandler+0x76>
 800277e:	2920      	cmp	r1, #32
 8002780:	d12a      	bne.n	80027d8 <HAL_I2C_ER_IRQHandler+0xcc>
 8002782:	2a28      	cmp	r2, #40	; 0x28
 8002784:	d128      	bne.n	80027d8 <HAL_I2C_ER_IRQHandler+0xcc>
 8002786:	4a2c      	ldr	r2, [pc, #176]	; (8002838 <HAL_I2C_ER_IRQHandler+0x12c>)
 8002788:	62e2      	str	r2, [r4, #44]	; 0x2c
 800278a:	685a      	ldr	r2, [r3, #4]
 800278c:	f422 62e0 	bic.w	r2, r2, #1792	; 0x700
 8002790:	605a      	str	r2, [r3, #4]
 8002792:	f46f 6280 	mvn.w	r2, #1024	; 0x400
 8002796:	615a      	str	r2, [r3, #20]
 8002798:	681a      	ldr	r2, [r3, #0]
 800279a:	f422 6280 	bic.w	r2, r2, #1024	; 0x400
 800279e:	601a      	str	r2, [r3, #0]
 80027a0:	2300      	movs	r3, #0
 80027a2:	2220      	movs	r2, #32
 80027a4:	6323      	str	r3, [r4, #48]	; 0x30
 80027a6:	4620      	mov	r0, r4
 80027a8:	f884 203d 	strb.w	r2, [r4, #61]	; 0x3d
 80027ac:	f884 303e 	strb.w	r3, [r4, #62]	; 0x3e
 80027b0:	f7fe f882 	bl	80008b8 <HAL_I2C_ListenCpltCallback>
 80027b4:	053a      	lsls	r2, r7, #20
 80027b6:	d53b      	bpl.n	8002830 <HAL_I2C_ER_IRQHandler+0x124>
 80027b8:	05f3      	lsls	r3, r6, #23
 80027ba:	d539      	bpl.n	8002830 <HAL_I2C_ER_IRQHandler+0x124>
 80027bc:	6823      	ldr	r3, [r4, #0]
 80027be:	f46f 6200 	mvn.w	r2, #2048	; 0x800
 80027c2:	f045 0508 	orr.w	r5, r5, #8
 80027c6:	615a      	str	r2, [r3, #20]
 80027c8:	6c23      	ldr	r3, [r4, #64]	; 0x40
 80027ca:	431d      	orrs	r5, r3
 80027cc:	6425      	str	r5, [r4, #64]	; 0x40
 80027ce:	4620      	mov	r0, r4
 80027d0:	e8bd 40f8 	ldmia.w	sp!, {r3, r4, r5, r6, r7, lr}
 80027d4:	f7ff baac 	b.w	8001d30 <I2C_ITError>
 80027d8:	2a21      	cmp	r2, #33	; 0x21
 80027da:	d117      	bne.n	800280c <HAL_I2C_ER_IRQHandler+0x100>
 80027dc:	4916      	ldr	r1, [pc, #88]	; (8002838 <HAL_I2C_ER_IRQHandler+0x12c>)
 80027de:	62e1      	str	r1, [r4, #44]	; 0x2c
 80027e0:	6322      	str	r2, [r4, #48]	; 0x30
 80027e2:	2220      	movs	r2, #32
 80027e4:	f884 203d 	strb.w	r2, [r4, #61]	; 0x3d
 80027e8:	2200      	movs	r2, #0
 80027ea:	f884 203e 	strb.w	r2, [r4, #62]	; 0x3e
 80027ee:	685a      	ldr	r2, [r3, #4]
 80027f0:	f422 62e0 	bic.w	r2, r2, #1792	; 0x700
 80027f4:	605a      	str	r2, [r3, #4]
 80027f6:	f46f 6280 	mvn.w	r2, #1024	; 0x400
 80027fa:	615a      	str	r2, [r3, #20]
 80027fc:	681a      	ldr	r2, [r3, #0]
 80027fe:	f422 6280 	bic.w	r2, r2, #1024	; 0x400
 8002802:	601a      	str	r2, [r3, #0]
 8002804:	4620      	mov	r0, r4
 8002806:	f7ff f936 	bl	8001a76 <HAL_I2C_SlaveTxCpltCallback>
 800280a:	e7d3      	b.n	80027b4 <HAL_I2C_ER_IRQHandler+0xa8>
 800280c:	f46f 6280 	mvn.w	r2, #1024	; 0x400
 8002810:	615a      	str	r2, [r3, #20]
 8002812:	e7cf      	b.n	80027b4 <HAL_I2C_ER_IRQHandler+0xa8>
 8002814:	f46f 6180 	mvn.w	r1, #1024	; 0x400
 8002818:	2a10      	cmp	r2, #16
 800281a:	6159      	str	r1, [r3, #20]
 800281c:	f045 0504 	orr.w	r5, r5, #4
 8002820:	d001      	beq.n	8002826 <HAL_I2C_ER_IRQHandler+0x11a>
 8002822:	2a40      	cmp	r2, #64	; 0x40
 8002824:	d1c6      	bne.n	80027b4 <HAL_I2C_ER_IRQHandler+0xa8>
 8002826:	681a      	ldr	r2, [r3, #0]
 8002828:	f442 7200 	orr.w	r2, r2, #512	; 0x200
 800282c:	601a      	str	r2, [r3, #0]
 800282e:	e7c1      	b.n	80027b4 <HAL_I2C_ER_IRQHandler+0xa8>
 8002830:	2d00      	cmp	r5, #0
 8002832:	d1c9      	bne.n	80027c8 <HAL_I2C_ER_IRQHandler+0xbc>
 8002834:	bdf8      	pop	{r3, r4, r5, r6, r7, pc}
 8002836:	bf00      	nop
 8002838:	ffff0000 	.word	0xffff0000

0800283c <HAL_RCC_OscConfig>:
 800283c:	e92d 41f3 	stmdb	sp!, {r0, r1, r4, r5, r6, r7, r8, lr}
 8002840:	4604      	mov	r4, r0
 8002842:	b908      	cbnz	r0, 8002848 <HAL_RCC_OscConfig+0xc>
 8002844:	2001      	movs	r0, #1
 8002846:	e059      	b.n	80028fc <HAL_RCC_OscConfig+0xc0>
 8002848:	6803      	ldr	r3, [r0, #0]
 800284a:	2b0f      	cmp	r3, #15
 800284c:	d903      	bls.n	8002856 <HAL_RCC_OscConfig+0x1a>
 800284e:	21e8      	movs	r1, #232	; 0xe8
 8002850:	48a3      	ldr	r0, [pc, #652]	; (8002ae0 <HAL_RCC_OscConfig+0x2a4>)
 8002852:	f7fe f8d8 	bl	8000a06 <assert_failed>
 8002856:	6823      	ldr	r3, [r4, #0]
 8002858:	07d8      	lsls	r0, r3, #31
 800285a:	d418      	bmi.n	800288e <HAL_RCC_OscConfig+0x52>
 800285c:	6823      	ldr	r3, [r4, #0]
 800285e:	0799      	lsls	r1, r3, #30
 8002860:	d46d      	bmi.n	800293e <HAL_RCC_OscConfig+0x102>
 8002862:	6823      	ldr	r3, [r4, #0]
 8002864:	0719      	lsls	r1, r3, #28
 8002866:	f100 80c0 	bmi.w	80029ea <HAL_RCC_OscConfig+0x1ae>
 800286a:	6823      	ldr	r3, [r4, #0]
 800286c:	075a      	lsls	r2, r3, #29
 800286e:	f100 80e6 	bmi.w	8002a3e <HAL_RCC_OscConfig+0x202>
 8002872:	69a3      	ldr	r3, [r4, #24]
 8002874:	2b02      	cmp	r3, #2
 8002876:	d904      	bls.n	8002882 <HAL_RCC_OscConfig+0x46>
 8002878:	f240 11cf 	movw	r1, #463	; 0x1cf
 800287c:	4898      	ldr	r0, [pc, #608]	; (8002ae0 <HAL_RCC_OscConfig+0x2a4>)
 800287e:	f7fe f8c2 	bl	8000a06 <assert_failed>
 8002882:	69a0      	ldr	r0, [r4, #24]
 8002884:	2800      	cmp	r0, #0
 8002886:	f040 8153 	bne.w	8002b30 <HAL_RCC_OscConfig+0x2f4>
 800288a:	2000      	movs	r0, #0
 800288c:	e036      	b.n	80028fc <HAL_RCC_OscConfig+0xc0>
 800288e:	6863      	ldr	r3, [r4, #4]
 8002890:	f433 3280 	bics.w	r2, r3, #65536	; 0x10000
 8002894:	d006      	beq.n	80028a4 <HAL_RCC_OscConfig+0x68>
 8002896:	f5b3 2fa0 	cmp.w	r3, #327680	; 0x50000
 800289a:	d003      	beq.n	80028a4 <HAL_RCC_OscConfig+0x68>
 800289c:	21ed      	movs	r1, #237	; 0xed
 800289e:	4890      	ldr	r0, [pc, #576]	; (8002ae0 <HAL_RCC_OscConfig+0x2a4>)
 80028a0:	f7fe f8b1 	bl	8000a06 <assert_failed>
 80028a4:	4b8f      	ldr	r3, [pc, #572]	; (8002ae4 <HAL_RCC_OscConfig+0x2a8>)
 80028a6:	689a      	ldr	r2, [r3, #8]
 80028a8:	f002 020c 	and.w	r2, r2, #12
 80028ac:	2a04      	cmp	r2, #4
 80028ae:	d007      	beq.n	80028c0 <HAL_RCC_OscConfig+0x84>
 80028b0:	689a      	ldr	r2, [r3, #8]
 80028b2:	f002 020c 	and.w	r2, r2, #12
 80028b6:	2a08      	cmp	r2, #8
 80028b8:	d10a      	bne.n	80028d0 <HAL_RCC_OscConfig+0x94>
 80028ba:	685b      	ldr	r3, [r3, #4]
 80028bc:	025a      	lsls	r2, r3, #9
 80028be:	d507      	bpl.n	80028d0 <HAL_RCC_OscConfig+0x94>
 80028c0:	4b88      	ldr	r3, [pc, #544]	; (8002ae4 <HAL_RCC_OscConfig+0x2a8>)
 80028c2:	681b      	ldr	r3, [r3, #0]
 80028c4:	039b      	lsls	r3, r3, #14
 80028c6:	d5c9      	bpl.n	800285c <HAL_RCC_OscConfig+0x20>
 80028c8:	6863      	ldr	r3, [r4, #4]
 80028ca:	2b00      	cmp	r3, #0
 80028cc:	d1c6      	bne.n	800285c <HAL_RCC_OscConfig+0x20>
 80028ce:	e7b9      	b.n	8002844 <HAL_RCC_OscConfig+0x8>
 80028d0:	6863      	ldr	r3, [r4, #4]
 80028d2:	4d84      	ldr	r5, [pc, #528]	; (8002ae4 <HAL_RCC_OscConfig+0x2a8>)
 80028d4:	f5b3 3f80 	cmp.w	r3, #65536	; 0x10000
 80028d8:	d113      	bne.n	8002902 <HAL_RCC_OscConfig+0xc6>
 80028da:	682b      	ldr	r3, [r5, #0]
 80028dc:	f443 3380 	orr.w	r3, r3, #65536	; 0x10000
 80028e0:	602b      	str	r3, [r5, #0]
 80028e2:	f7fe f9e9 	bl	8000cb8 <HAL_GetTick>
 80028e6:	4d7f      	ldr	r5, [pc, #508]	; (8002ae4 <HAL_RCC_OscConfig+0x2a8>)
 80028e8:	4606      	mov	r6, r0
 80028ea:	682b      	ldr	r3, [r5, #0]
 80028ec:	039f      	lsls	r7, r3, #14
 80028ee:	d4b5      	bmi.n	800285c <HAL_RCC_OscConfig+0x20>
 80028f0:	f7fe f9e2 	bl	8000cb8 <HAL_GetTick>
 80028f4:	1b80      	subs	r0, r0, r6
 80028f6:	2864      	cmp	r0, #100	; 0x64
 80028f8:	d9f7      	bls.n	80028ea <HAL_RCC_OscConfig+0xae>
 80028fa:	2003      	movs	r0, #3
 80028fc:	b002      	add	sp, #8
 80028fe:	e8bd 81f0 	ldmia.w	sp!, {r4, r5, r6, r7, r8, pc}
 8002902:	f5b3 2fa0 	cmp.w	r3, #327680	; 0x50000
 8002906:	d104      	bne.n	8002912 <HAL_RCC_OscConfig+0xd6>
 8002908:	682b      	ldr	r3, [r5, #0]
 800290a:	f443 2380 	orr.w	r3, r3, #262144	; 0x40000
 800290e:	602b      	str	r3, [r5, #0]
 8002910:	e7e3      	b.n	80028da <HAL_RCC_OscConfig+0x9e>
 8002912:	682a      	ldr	r2, [r5, #0]
 8002914:	f422 3280 	bic.w	r2, r2, #65536	; 0x10000
 8002918:	602a      	str	r2, [r5, #0]
 800291a:	682a      	ldr	r2, [r5, #0]
 800291c:	f422 2280 	bic.w	r2, r2, #262144	; 0x40000
 8002920:	602a      	str	r2, [r5, #0]
 8002922:	2b00      	cmp	r3, #0
 8002924:	d1dd      	bne.n	80028e2 <HAL_RCC_OscConfig+0xa6>
 8002926:	f7fe f9c7 	bl	8000cb8 <HAL_GetTick>
 800292a:	4606      	mov	r6, r0
 800292c:	682b      	ldr	r3, [r5, #0]
 800292e:	0398      	lsls	r0, r3, #14
 8002930:	d594      	bpl.n	800285c <HAL_RCC_OscConfig+0x20>
 8002932:	f7fe f9c1 	bl	8000cb8 <HAL_GetTick>
 8002936:	1b80      	subs	r0, r0, r6
 8002938:	2864      	cmp	r0, #100	; 0x64
 800293a:	d9f7      	bls.n	800292c <HAL_RCC_OscConfig+0xf0>
 800293c:	e7dd      	b.n	80028fa <HAL_RCC_OscConfig+0xbe>
 800293e:	68e3      	ldr	r3, [r4, #12]
 8002940:	2b01      	cmp	r3, #1
 8002942:	d904      	bls.n	800294e <HAL_RCC_OscConfig+0x112>
 8002944:	f240 111f 	movw	r1, #287	; 0x11f
 8002948:	4865      	ldr	r0, [pc, #404]	; (8002ae0 <HAL_RCC_OscConfig+0x2a4>)
 800294a:	f7fe f85c 	bl	8000a06 <assert_failed>
 800294e:	6923      	ldr	r3, [r4, #16]
 8002950:	2b1f      	cmp	r3, #31
 8002952:	d904      	bls.n	800295e <HAL_RCC_OscConfig+0x122>
 8002954:	f44f 7190 	mov.w	r1, #288	; 0x120
 8002958:	4861      	ldr	r0, [pc, #388]	; (8002ae0 <HAL_RCC_OscConfig+0x2a4>)
 800295a:	f7fe f854 	bl	8000a06 <assert_failed>
 800295e:	4b61      	ldr	r3, [pc, #388]	; (8002ae4 <HAL_RCC_OscConfig+0x2a8>)
 8002960:	689a      	ldr	r2, [r3, #8]
 8002962:	f012 0f0c 	tst.w	r2, #12
 8002966:	d007      	beq.n	8002978 <HAL_RCC_OscConfig+0x13c>
 8002968:	689a      	ldr	r2, [r3, #8]
 800296a:	f002 020c 	and.w	r2, r2, #12
 800296e:	2a08      	cmp	r2, #8
 8002970:	d112      	bne.n	8002998 <HAL_RCC_OscConfig+0x15c>
 8002972:	685b      	ldr	r3, [r3, #4]
 8002974:	0259      	lsls	r1, r3, #9
 8002976:	d40f      	bmi.n	8002998 <HAL_RCC_OscConfig+0x15c>
 8002978:	4b5a      	ldr	r3, [pc, #360]	; (8002ae4 <HAL_RCC_OscConfig+0x2a8>)
 800297a:	681a      	ldr	r2, [r3, #0]
 800297c:	0792      	lsls	r2, r2, #30
 800297e:	d503      	bpl.n	8002988 <HAL_RCC_OscConfig+0x14c>
 8002980:	68e2      	ldr	r2, [r4, #12]
 8002982:	2a01      	cmp	r2, #1
 8002984:	f47f af5e 	bne.w	8002844 <HAL_RCC_OscConfig+0x8>
 8002988:	681a      	ldr	r2, [r3, #0]
 800298a:	6921      	ldr	r1, [r4, #16]
 800298c:	f022 02f8 	bic.w	r2, r2, #248	; 0xf8
 8002990:	ea42 02c1 	orr.w	r2, r2, r1, lsl #3
 8002994:	601a      	str	r2, [r3, #0]
 8002996:	e764      	b.n	8002862 <HAL_RCC_OscConfig+0x26>
 8002998:	68e2      	ldr	r2, [r4, #12]
 800299a:	4b53      	ldr	r3, [pc, #332]	; (8002ae8 <HAL_RCC_OscConfig+0x2ac>)
 800299c:	b1b2      	cbz	r2, 80029cc <HAL_RCC_OscConfig+0x190>
 800299e:	2201      	movs	r2, #1
 80029a0:	601a      	str	r2, [r3, #0]
 80029a2:	f7fe f989 	bl	8000cb8 <HAL_GetTick>
 80029a6:	4d4f      	ldr	r5, [pc, #316]	; (8002ae4 <HAL_RCC_OscConfig+0x2a8>)
 80029a8:	4606      	mov	r6, r0
 80029aa:	682b      	ldr	r3, [r5, #0]
 80029ac:	079f      	lsls	r7, r3, #30
 80029ae:	d507      	bpl.n	80029c0 <HAL_RCC_OscConfig+0x184>
 80029b0:	682b      	ldr	r3, [r5, #0]
 80029b2:	6922      	ldr	r2, [r4, #16]
 80029b4:	f023 03f8 	bic.w	r3, r3, #248	; 0xf8
 80029b8:	ea43 03c2 	orr.w	r3, r3, r2, lsl #3
 80029bc:	602b      	str	r3, [r5, #0]
 80029be:	e750      	b.n	8002862 <HAL_RCC_OscConfig+0x26>
 80029c0:	f7fe f97a 	bl	8000cb8 <HAL_GetTick>
 80029c4:	1b80      	subs	r0, r0, r6
 80029c6:	2802      	cmp	r0, #2
 80029c8:	d9ef      	bls.n	80029aa <HAL_RCC_OscConfig+0x16e>
 80029ca:	e796      	b.n	80028fa <HAL_RCC_OscConfig+0xbe>
 80029cc:	601a      	str	r2, [r3, #0]
 80029ce:	f7fe f973 	bl	8000cb8 <HAL_GetTick>
 80029d2:	4d44      	ldr	r5, [pc, #272]	; (8002ae4 <HAL_RCC_OscConfig+0x2a8>)
 80029d4:	4606      	mov	r6, r0
 80029d6:	682b      	ldr	r3, [r5, #0]
 80029d8:	0798      	lsls	r0, r3, #30
 80029da:	f57f af42 	bpl.w	8002862 <HAL_RCC_OscConfig+0x26>
 80029de:	f7fe f96b 	bl	8000cb8 <HAL_GetTick>
 80029e2:	1b80      	subs	r0, r0, r6
 80029e4:	2802      	cmp	r0, #2
 80029e6:	d9f6      	bls.n	80029d6 <HAL_RCC_OscConfig+0x19a>
 80029e8:	e787      	b.n	80028fa <HAL_RCC_OscConfig+0xbe>
 80029ea:	6963      	ldr	r3, [r4, #20]
 80029ec:	2b01      	cmp	r3, #1
 80029ee:	d904      	bls.n	80029fa <HAL_RCC_OscConfig+0x1be>
 80029f0:	f44f 71b0 	mov.w	r1, #352	; 0x160
 80029f4:	483a      	ldr	r0, [pc, #232]	; (8002ae0 <HAL_RCC_OscConfig+0x2a4>)
 80029f6:	f7fe f806 	bl	8000a06 <assert_failed>
 80029fa:	6962      	ldr	r2, [r4, #20]
 80029fc:	4b3b      	ldr	r3, [pc, #236]	; (8002aec <HAL_RCC_OscConfig+0x2b0>)
 80029fe:	b17a      	cbz	r2, 8002a20 <HAL_RCC_OscConfig+0x1e4>
 8002a00:	2201      	movs	r2, #1
 8002a02:	601a      	str	r2, [r3, #0]
 8002a04:	f7fe f958 	bl	8000cb8 <HAL_GetTick>
 8002a08:	4d36      	ldr	r5, [pc, #216]	; (8002ae4 <HAL_RCC_OscConfig+0x2a8>)
 8002a0a:	4606      	mov	r6, r0
 8002a0c:	6f6b      	ldr	r3, [r5, #116]	; 0x74
 8002a0e:	079b      	lsls	r3, r3, #30
 8002a10:	f53f af2b 	bmi.w	800286a <HAL_RCC_OscConfig+0x2e>
 8002a14:	f7fe f950 	bl	8000cb8 <HAL_GetTick>
 8002a18:	1b80      	subs	r0, r0, r6
 8002a1a:	2802      	cmp	r0, #2
 8002a1c:	d9f6      	bls.n	8002a0c <HAL_RCC_OscConfig+0x1d0>
 8002a1e:	e76c      	b.n	80028fa <HAL_RCC_OscConfig+0xbe>
 8002a20:	601a      	str	r2, [r3, #0]
 8002a22:	f7fe f949 	bl	8000cb8 <HAL_GetTick>
 8002a26:	4d2f      	ldr	r5, [pc, #188]	; (8002ae4 <HAL_RCC_OscConfig+0x2a8>)
 8002a28:	4606      	mov	r6, r0
 8002a2a:	6f6b      	ldr	r3, [r5, #116]	; 0x74
 8002a2c:	079f      	lsls	r7, r3, #30
 8002a2e:	f57f af1c 	bpl.w	800286a <HAL_RCC_OscConfig+0x2e>
 8002a32:	f7fe f941 	bl	8000cb8 <HAL_GetTick>
 8002a36:	1b80      	subs	r0, r0, r6
 8002a38:	2802      	cmp	r0, #2
 8002a3a:	d9f6      	bls.n	8002a2a <HAL_RCC_OscConfig+0x1ee>
 8002a3c:	e75d      	b.n	80028fa <HAL_RCC_OscConfig+0xbe>
 8002a3e:	68a3      	ldr	r3, [r4, #8]
 8002a40:	2b01      	cmp	r3, #1
 8002a42:	d906      	bls.n	8002a52 <HAL_RCC_OscConfig+0x216>
 8002a44:	2b05      	cmp	r3, #5
 8002a46:	d004      	beq.n	8002a52 <HAL_RCC_OscConfig+0x216>
 8002a48:	f44f 71c6 	mov.w	r1, #396	; 0x18c
 8002a4c:	4824      	ldr	r0, [pc, #144]	; (8002ae0 <HAL_RCC_OscConfig+0x2a4>)
 8002a4e:	f7fd ffda 	bl	8000a06 <assert_failed>
 8002a52:	4b24      	ldr	r3, [pc, #144]	; (8002ae4 <HAL_RCC_OscConfig+0x2a8>)
 8002a54:	6c1a      	ldr	r2, [r3, #64]	; 0x40
 8002a56:	f012 5280 	ands.w	r2, r2, #268435456	; 0x10000000
 8002a5a:	d128      	bne.n	8002aae <HAL_RCC_OscConfig+0x272>
 8002a5c:	9201      	str	r2, [sp, #4]
 8002a5e:	6c1a      	ldr	r2, [r3, #64]	; 0x40
 8002a60:	f042 5280 	orr.w	r2, r2, #268435456	; 0x10000000
 8002a64:	641a      	str	r2, [r3, #64]	; 0x40
 8002a66:	6c1b      	ldr	r3, [r3, #64]	; 0x40
 8002a68:	f003 5380 	and.w	r3, r3, #268435456	; 0x10000000
 8002a6c:	9301      	str	r3, [sp, #4]
 8002a6e:	9b01      	ldr	r3, [sp, #4]
 8002a70:	2601      	movs	r6, #1
 8002a72:	4d1f      	ldr	r5, [pc, #124]	; (8002af0 <HAL_RCC_OscConfig+0x2b4>)
 8002a74:	682b      	ldr	r3, [r5, #0]
 8002a76:	05d8      	lsls	r0, r3, #23
 8002a78:	d51b      	bpl.n	8002ab2 <HAL_RCC_OscConfig+0x276>
 8002a7a:	68a3      	ldr	r3, [r4, #8]
 8002a7c:	4d19      	ldr	r5, [pc, #100]	; (8002ae4 <HAL_RCC_OscConfig+0x2a8>)
 8002a7e:	2b01      	cmp	r3, #1
 8002a80:	d127      	bne.n	8002ad2 <HAL_RCC_OscConfig+0x296>
 8002a82:	6f2b      	ldr	r3, [r5, #112]	; 0x70
 8002a84:	f043 0301 	orr.w	r3, r3, #1
 8002a88:	672b      	str	r3, [r5, #112]	; 0x70
 8002a8a:	f7fe f915 	bl	8000cb8 <HAL_GetTick>
 8002a8e:	4d15      	ldr	r5, [pc, #84]	; (8002ae4 <HAL_RCC_OscConfig+0x2a8>)
 8002a90:	4607      	mov	r7, r0
 8002a92:	f241 3888 	movw	r8, #5000	; 0x1388
 8002a96:	6f2b      	ldr	r3, [r5, #112]	; 0x70
 8002a98:	079a      	lsls	r2, r3, #30
 8002a9a:	d543      	bpl.n	8002b24 <HAL_RCC_OscConfig+0x2e8>
 8002a9c:	2e00      	cmp	r6, #0
 8002a9e:	f43f aee8 	beq.w	8002872 <HAL_RCC_OscConfig+0x36>
 8002aa2:	4a10      	ldr	r2, [pc, #64]	; (8002ae4 <HAL_RCC_OscConfig+0x2a8>)
 8002aa4:	6c13      	ldr	r3, [r2, #64]	; 0x40
 8002aa6:	f023 5380 	bic.w	r3, r3, #268435456	; 0x10000000
 8002aaa:	6413      	str	r3, [r2, #64]	; 0x40
 8002aac:	e6e1      	b.n	8002872 <HAL_RCC_OscConfig+0x36>
 8002aae:	2600      	movs	r6, #0
 8002ab0:	e7df      	b.n	8002a72 <HAL_RCC_OscConfig+0x236>
 8002ab2:	682b      	ldr	r3, [r5, #0]
 8002ab4:	f443 7380 	orr.w	r3, r3, #256	; 0x100
 8002ab8:	602b      	str	r3, [r5, #0]
 8002aba:	f7fe f8fd 	bl	8000cb8 <HAL_GetTick>
 8002abe:	4607      	mov	r7, r0
 8002ac0:	682b      	ldr	r3, [r5, #0]
 8002ac2:	05d9      	lsls	r1, r3, #23
 8002ac4:	d4d9      	bmi.n	8002a7a <HAL_RCC_OscConfig+0x23e>
 8002ac6:	f7fe f8f7 	bl	8000cb8 <HAL_GetTick>
 8002aca:	1bc0      	subs	r0, r0, r7
 8002acc:	2802      	cmp	r0, #2
 8002ace:	d9f7      	bls.n	8002ac0 <HAL_RCC_OscConfig+0x284>
 8002ad0:	e713      	b.n	80028fa <HAL_RCC_OscConfig+0xbe>
 8002ad2:	2b05      	cmp	r3, #5
 8002ad4:	d10e      	bne.n	8002af4 <HAL_RCC_OscConfig+0x2b8>
 8002ad6:	6f2b      	ldr	r3, [r5, #112]	; 0x70
 8002ad8:	f043 0304 	orr.w	r3, r3, #4
 8002adc:	672b      	str	r3, [r5, #112]	; 0x70
 8002ade:	e7d0      	b.n	8002a82 <HAL_RCC_OscConfig+0x246>
 8002ae0:	08003a30 	.word	0x08003a30
 8002ae4:	40023800 	.word	0x40023800
 8002ae8:	42470000 	.word	0x42470000
 8002aec:	42470e80 	.word	0x42470e80
 8002af0:	40007000 	.word	0x40007000
 8002af4:	6f2a      	ldr	r2, [r5, #112]	; 0x70
 8002af6:	f022 0201 	bic.w	r2, r2, #1
 8002afa:	672a      	str	r2, [r5, #112]	; 0x70
 8002afc:	6f2a      	ldr	r2, [r5, #112]	; 0x70
 8002afe:	f022 0204 	bic.w	r2, r2, #4
 8002b02:	672a      	str	r2, [r5, #112]	; 0x70
 8002b04:	2b00      	cmp	r3, #0
 8002b06:	d1c0      	bne.n	8002a8a <HAL_RCC_OscConfig+0x24e>
 8002b08:	f7fe f8d6 	bl	8000cb8 <HAL_GetTick>
 8002b0c:	f241 3888 	movw	r8, #5000	; 0x1388
 8002b10:	4607      	mov	r7, r0
 8002b12:	6f2b      	ldr	r3, [r5, #112]	; 0x70
 8002b14:	079b      	lsls	r3, r3, #30
 8002b16:	d5c1      	bpl.n	8002a9c <HAL_RCC_OscConfig+0x260>
 8002b18:	f7fe f8ce 	bl	8000cb8 <HAL_GetTick>
 8002b1c:	1bc0      	subs	r0, r0, r7
 8002b1e:	4540      	cmp	r0, r8
 8002b20:	d9f7      	bls.n	8002b12 <HAL_RCC_OscConfig+0x2d6>
 8002b22:	e6ea      	b.n	80028fa <HAL_RCC_OscConfig+0xbe>
 8002b24:	f7fe f8c8 	bl	8000cb8 <HAL_GetTick>
 8002b28:	1bc0      	subs	r0, r0, r7
 8002b2a:	4540      	cmp	r0, r8
 8002b2c:	d9b3      	bls.n	8002a96 <HAL_RCC_OscConfig+0x25a>
 8002b2e:	e6e4      	b.n	80028fa <HAL_RCC_OscConfig+0xbe>
 8002b30:	4d4c      	ldr	r5, [pc, #304]	; (8002c64 <HAL_RCC_OscConfig+0x428>)
 8002b32:	68ab      	ldr	r3, [r5, #8]
 8002b34:	f003 030c 	and.w	r3, r3, #12
 8002b38:	2b08      	cmp	r3, #8
 8002b3a:	d06f      	beq.n	8002c1c <HAL_RCC_OscConfig+0x3e0>
 8002b3c:	2802      	cmp	r0, #2
 8002b3e:	4e4a      	ldr	r6, [pc, #296]	; (8002c68 <HAL_RCC_OscConfig+0x42c>)
 8002b40:	d15d      	bne.n	8002bfe <HAL_RCC_OscConfig+0x3c2>
 8002b42:	69e3      	ldr	r3, [r4, #28]
 8002b44:	f433 0380 	bics.w	r3, r3, #4194304	; 0x400000
 8002b48:	d004      	beq.n	8002b54 <HAL_RCC_OscConfig+0x318>
 8002b4a:	f44f 71ec 	mov.w	r1, #472	; 0x1d8
 8002b4e:	4847      	ldr	r0, [pc, #284]	; (8002c6c <HAL_RCC_OscConfig+0x430>)
 8002b50:	f7fd ff59 	bl	8000a06 <assert_failed>
 8002b54:	6a23      	ldr	r3, [r4, #32]
 8002b56:	2b3f      	cmp	r3, #63	; 0x3f
 8002b58:	d904      	bls.n	8002b64 <HAL_RCC_OscConfig+0x328>
 8002b5a:	f240 11d9 	movw	r1, #473	; 0x1d9
 8002b5e:	4843      	ldr	r0, [pc, #268]	; (8002c6c <HAL_RCC_OscConfig+0x430>)
 8002b60:	f7fd ff51 	bl	8000a06 <assert_failed>
 8002b64:	6a63      	ldr	r3, [r4, #36]	; 0x24
 8002b66:	3bc0      	subs	r3, #192	; 0xc0
 8002b68:	2bf0      	cmp	r3, #240	; 0xf0
 8002b6a:	d904      	bls.n	8002b76 <HAL_RCC_OscConfig+0x33a>
 8002b6c:	f44f 71ed 	mov.w	r1, #474	; 0x1da
 8002b70:	483e      	ldr	r0, [pc, #248]	; (8002c6c <HAL_RCC_OscConfig+0x430>)
 8002b72:	f7fd ff48 	bl	8000a06 <assert_failed>
 8002b76:	6aa2      	ldr	r2, [r4, #40]	; 0x28
 8002b78:	2a08      	cmp	r2, #8
 8002b7a:	d804      	bhi.n	8002b86 <HAL_RCC_OscConfig+0x34a>
 8002b7c:	f44f 73aa 	mov.w	r3, #340	; 0x154
 8002b80:	40d3      	lsrs	r3, r2
 8002b82:	07d8      	lsls	r0, r3, #31
 8002b84:	d404      	bmi.n	8002b90 <HAL_RCC_OscConfig+0x354>
 8002b86:	f240 11db 	movw	r1, #475	; 0x1db
 8002b8a:	4838      	ldr	r0, [pc, #224]	; (8002c6c <HAL_RCC_OscConfig+0x430>)
 8002b8c:	f7fd ff3b 	bl	8000a06 <assert_failed>
 8002b90:	6ae3      	ldr	r3, [r4, #44]	; 0x2c
 8002b92:	3b02      	subs	r3, #2
 8002b94:	2b0d      	cmp	r3, #13
 8002b96:	d904      	bls.n	8002ba2 <HAL_RCC_OscConfig+0x366>
 8002b98:	f44f 71ee 	mov.w	r1, #476	; 0x1dc
 8002b9c:	4833      	ldr	r0, [pc, #204]	; (8002c6c <HAL_RCC_OscConfig+0x430>)
 8002b9e:	f7fd ff32 	bl	8000a06 <assert_failed>
 8002ba2:	2300      	movs	r3, #0
 8002ba4:	6033      	str	r3, [r6, #0]
 8002ba6:	f7fe f887 	bl	8000cb8 <HAL_GetTick>
 8002baa:	4d2e      	ldr	r5, [pc, #184]	; (8002c64 <HAL_RCC_OscConfig+0x428>)
 8002bac:	4607      	mov	r7, r0
 8002bae:	682b      	ldr	r3, [r5, #0]
 8002bb0:	0199      	lsls	r1, r3, #6
 8002bb2:	d41e      	bmi.n	8002bf2 <HAL_RCC_OscConfig+0x3b6>
 8002bb4:	e9d4 3207 	ldrd	r3, r2, [r4, #28]
 8002bb8:	4313      	orrs	r3, r2
 8002bba:	6a62      	ldr	r2, [r4, #36]	; 0x24
 8002bbc:	ea43 1382 	orr.w	r3, r3, r2, lsl #6
 8002bc0:	6ae2      	ldr	r2, [r4, #44]	; 0x2c
 8002bc2:	ea43 6302 	orr.w	r3, r3, r2, lsl #24
 8002bc6:	6aa2      	ldr	r2, [r4, #40]	; 0x28
 8002bc8:	4c26      	ldr	r4, [pc, #152]	; (8002c64 <HAL_RCC_OscConfig+0x428>)
 8002bca:	0852      	lsrs	r2, r2, #1
 8002bcc:	3a01      	subs	r2, #1
 8002bce:	ea43 4302 	orr.w	r3, r3, r2, lsl #16
 8002bd2:	606b      	str	r3, [r5, #4]
 8002bd4:	2301      	movs	r3, #1
 8002bd6:	6033      	str	r3, [r6, #0]
 8002bd8:	f7fe f86e 	bl	8000cb8 <HAL_GetTick>
 8002bdc:	4605      	mov	r5, r0
 8002bde:	6823      	ldr	r3, [r4, #0]
 8002be0:	019a      	lsls	r2, r3, #6
 8002be2:	f53f ae52 	bmi.w	800288a <HAL_RCC_OscConfig+0x4e>
 8002be6:	f7fe f867 	bl	8000cb8 <HAL_GetTick>
 8002bea:	1b40      	subs	r0, r0, r5
 8002bec:	2802      	cmp	r0, #2
 8002bee:	d9f6      	bls.n	8002bde <HAL_RCC_OscConfig+0x3a2>
 8002bf0:	e683      	b.n	80028fa <HAL_RCC_OscConfig+0xbe>
 8002bf2:	f7fe f861 	bl	8000cb8 <HAL_GetTick>
 8002bf6:	1bc0      	subs	r0, r0, r7
 8002bf8:	2802      	cmp	r0, #2
 8002bfa:	d9d8      	bls.n	8002bae <HAL_RCC_OscConfig+0x372>
 8002bfc:	e67d      	b.n	80028fa <HAL_RCC_OscConfig+0xbe>
 8002bfe:	2300      	movs	r3, #0
 8002c00:	6033      	str	r3, [r6, #0]
 8002c02:	f7fe f859 	bl	8000cb8 <HAL_GetTick>
 8002c06:	4604      	mov	r4, r0
 8002c08:	682b      	ldr	r3, [r5, #0]
 8002c0a:	019b      	lsls	r3, r3, #6
 8002c0c:	f57f ae3d 	bpl.w	800288a <HAL_RCC_OscConfig+0x4e>
 8002c10:	f7fe f852 	bl	8000cb8 <HAL_GetTick>
 8002c14:	1b00      	subs	r0, r0, r4
 8002c16:	2802      	cmp	r0, #2
 8002c18:	d9f6      	bls.n	8002c08 <HAL_RCC_OscConfig+0x3cc>
 8002c1a:	e66e      	b.n	80028fa <HAL_RCC_OscConfig+0xbe>
 8002c1c:	2801      	cmp	r0, #1
 8002c1e:	f43f ae6d 	beq.w	80028fc <HAL_RCC_OscConfig+0xc0>
 8002c22:	6868      	ldr	r0, [r5, #4]
 8002c24:	69e3      	ldr	r3, [r4, #28]
 8002c26:	f400 0280 	and.w	r2, r0, #4194304	; 0x400000
 8002c2a:	429a      	cmp	r2, r3
 8002c2c:	f47f ae0a 	bne.w	8002844 <HAL_RCC_OscConfig+0x8>
 8002c30:	6a22      	ldr	r2, [r4, #32]
 8002c32:	f000 033f 	and.w	r3, r0, #63	; 0x3f
 8002c36:	4293      	cmp	r3, r2
 8002c38:	f47f ae04 	bne.w	8002844 <HAL_RCC_OscConfig+0x8>
 8002c3c:	6a62      	ldr	r2, [r4, #36]	; 0x24
 8002c3e:	f647 73c0 	movw	r3, #32704	; 0x7fc0
 8002c42:	4003      	ands	r3, r0
 8002c44:	4293      	cmp	r3, r2
 8002c46:	f47f adfd 	bne.w	8002844 <HAL_RCC_OscConfig+0x8>
 8002c4a:	6aa2      	ldr	r2, [r4, #40]	; 0x28
 8002c4c:	f400 3340 	and.w	r3, r0, #196608	; 0x30000
 8002c50:	4293      	cmp	r3, r2
 8002c52:	f47f adf7 	bne.w	8002844 <HAL_RCC_OscConfig+0x8>
 8002c56:	6ae3      	ldr	r3, [r4, #44]	; 0x2c
 8002c58:	f000 6070 	and.w	r0, r0, #251658240	; 0xf000000
 8002c5c:	1ac0      	subs	r0, r0, r3
 8002c5e:	bf18      	it	ne
 8002c60:	2001      	movne	r0, #1
 8002c62:	e64b      	b.n	80028fc <HAL_RCC_OscConfig+0xc0>
 8002c64:	40023800 	.word	0x40023800
 8002c68:	42470060 	.word	0x42470060
 8002c6c:	08003a30 	.word	0x08003a30

08002c70 <HAL_RCC_GetSysClockFreq>:
 8002c70:	4913      	ldr	r1, [pc, #76]	; (8002cc0 <HAL_RCC_GetSysClockFreq+0x50>)
 8002c72:	b508      	push	{r3, lr}
 8002c74:	688b      	ldr	r3, [r1, #8]
 8002c76:	f003 030c 	and.w	r3, r3, #12
 8002c7a:	2b04      	cmp	r3, #4
 8002c7c:	d003      	beq.n	8002c86 <HAL_RCC_GetSysClockFreq+0x16>
 8002c7e:	2b08      	cmp	r3, #8
 8002c80:	d003      	beq.n	8002c8a <HAL_RCC_GetSysClockFreq+0x1a>
 8002c82:	4810      	ldr	r0, [pc, #64]	; (8002cc4 <HAL_RCC_GetSysClockFreq+0x54>)
 8002c84:	e000      	b.n	8002c88 <HAL_RCC_GetSysClockFreq+0x18>
 8002c86:	4810      	ldr	r0, [pc, #64]	; (8002cc8 <HAL_RCC_GetSysClockFreq+0x58>)
 8002c88:	bd08      	pop	{r3, pc}
 8002c8a:	684a      	ldr	r2, [r1, #4]
 8002c8c:	684b      	ldr	r3, [r1, #4]
 8002c8e:	6849      	ldr	r1, [r1, #4]
 8002c90:	f413 0380 	ands.w	r3, r3, #4194304	; 0x400000
 8002c94:	bf14      	ite	ne
 8002c96:	480c      	ldrne	r0, [pc, #48]	; (8002cc8 <HAL_RCC_GetSysClockFreq+0x58>)
 8002c98:	480a      	ldreq	r0, [pc, #40]	; (8002cc4 <HAL_RCC_GetSysClockFreq+0x54>)
 8002c9a:	f3c1 1188 	ubfx	r1, r1, #6, #9
 8002c9e:	bf18      	it	ne
 8002ca0:	2300      	movne	r3, #0
 8002ca2:	f002 023f 	and.w	r2, r2, #63	; 0x3f
 8002ca6:	fba1 0100 	umull	r0, r1, r1, r0
 8002caa:	f7fd fa95 	bl	80001d8 <__aeabi_uldivmod>
 8002cae:	4b04      	ldr	r3, [pc, #16]	; (8002cc0 <HAL_RCC_GetSysClockFreq+0x50>)
 8002cb0:	685b      	ldr	r3, [r3, #4]
 8002cb2:	f3c3 4301 	ubfx	r3, r3, #16, #2
 8002cb6:	3301      	adds	r3, #1
 8002cb8:	005b      	lsls	r3, r3, #1
 8002cba:	fbb0 f0f3 	udiv	r0, r0, r3
 8002cbe:	e7e3      	b.n	8002c88 <HAL_RCC_GetSysClockFreq+0x18>
 8002cc0:	40023800 	.word	0x40023800
 8002cc4:	00f42400 	.word	0x00f42400
 8002cc8:	007a1200 	.word	0x007a1200

08002ccc <HAL_RCC_ClockConfig>:
 8002ccc:	e92d 41f0 	stmdb	sp!, {r4, r5, r6, r7, r8, lr}
 8002cd0:	460d      	mov	r5, r1
 8002cd2:	4604      	mov	r4, r0
 8002cd4:	b910      	cbnz	r0, 8002cdc <HAL_RCC_ClockConfig+0x10>
 8002cd6:	2001      	movs	r0, #1
 8002cd8:	e8bd 81f0 	ldmia.w	sp!, {r4, r5, r6, r7, r8, pc}
 8002cdc:	6803      	ldr	r3, [r0, #0]
 8002cde:	3b01      	subs	r3, #1
 8002ce0:	2b0e      	cmp	r3, #14
 8002ce2:	d904      	bls.n	8002cee <HAL_RCC_ClockConfig+0x22>
 8002ce4:	f240 2151 	movw	r1, #593	; 0x251
 8002ce8:	486c      	ldr	r0, [pc, #432]	; (8002e9c <HAL_RCC_ClockConfig+0x1d0>)
 8002cea:	f7fd fe8c 	bl	8000a06 <assert_failed>
 8002cee:	2d07      	cmp	r5, #7
 8002cf0:	d904      	bls.n	8002cfc <HAL_RCC_ClockConfig+0x30>
 8002cf2:	f240 2152 	movw	r1, #594	; 0x252
 8002cf6:	4869      	ldr	r0, [pc, #420]	; (8002e9c <HAL_RCC_ClockConfig+0x1d0>)
 8002cf8:	f7fd fe85 	bl	8000a06 <assert_failed>
 8002cfc:	4b68      	ldr	r3, [pc, #416]	; (8002ea0 <HAL_RCC_ClockConfig+0x1d4>)
 8002cfe:	681a      	ldr	r2, [r3, #0]
 8002d00:	f002 020f 	and.w	r2, r2, #15
 8002d04:	42aa      	cmp	r2, r5
 8002d06:	d33d      	bcc.n	8002d84 <HAL_RCC_ClockConfig+0xb8>
 8002d08:	6822      	ldr	r2, [r4, #0]
 8002d0a:	0796      	lsls	r6, r2, #30
 8002d0c:	d442      	bmi.n	8002d94 <HAL_RCC_ClockConfig+0xc8>
 8002d0e:	6823      	ldr	r3, [r4, #0]
 8002d10:	07d9      	lsls	r1, r3, #31
 8002d12:	d46c      	bmi.n	8002dee <HAL_RCC_ClockConfig+0x122>
 8002d14:	4b62      	ldr	r3, [pc, #392]	; (8002ea0 <HAL_RCC_ClockConfig+0x1d4>)
 8002d16:	681a      	ldr	r2, [r3, #0]
 8002d18:	f002 020f 	and.w	r2, r2, #15
 8002d1c:	42aa      	cmp	r2, r5
 8002d1e:	f200 809b 	bhi.w	8002e58 <HAL_RCC_ClockConfig+0x18c>
 8002d22:	6823      	ldr	r3, [r4, #0]
 8002d24:	075a      	lsls	r2, r3, #29
 8002d26:	f100 80a0 	bmi.w	8002e6a <HAL_RCC_ClockConfig+0x19e>
 8002d2a:	6823      	ldr	r3, [r4, #0]
 8002d2c:	071b      	lsls	r3, r3, #28
 8002d2e:	d518      	bpl.n	8002d62 <HAL_RCC_ClockConfig+0x96>
 8002d30:	6923      	ldr	r3, [r4, #16]
 8002d32:	f433 5280 	bics.w	r2, r3, #4096	; 0x1000
 8002d36:	d00c      	beq.n	8002d52 <HAL_RCC_ClockConfig+0x86>
 8002d38:	f423 6200 	bic.w	r2, r3, #2048	; 0x800
 8002d3c:	f5b2 5fa0 	cmp.w	r2, #5120	; 0x1400
 8002d40:	d007      	beq.n	8002d52 <HAL_RCC_ClockConfig+0x86>
 8002d42:	f5b3 5fc0 	cmp.w	r3, #6144	; 0x1800
 8002d46:	d004      	beq.n	8002d52 <HAL_RCC_ClockConfig+0x86>
 8002d48:	f240 21c1 	movw	r1, #705	; 0x2c1
 8002d4c:	4853      	ldr	r0, [pc, #332]	; (8002e9c <HAL_RCC_ClockConfig+0x1d0>)
 8002d4e:	f7fd fe5a 	bl	8000a06 <assert_failed>
 8002d52:	4a54      	ldr	r2, [pc, #336]	; (8002ea4 <HAL_RCC_ClockConfig+0x1d8>)
 8002d54:	6921      	ldr	r1, [r4, #16]
 8002d56:	6893      	ldr	r3, [r2, #8]
 8002d58:	f423 4360 	bic.w	r3, r3, #57344	; 0xe000
 8002d5c:	ea43 03c1 	orr.w	r3, r3, r1, lsl #3
 8002d60:	6093      	str	r3, [r2, #8]
 8002d62:	f7ff ff85 	bl	8002c70 <HAL_RCC_GetSysClockFreq>
 8002d66:	4b4f      	ldr	r3, [pc, #316]	; (8002ea4 <HAL_RCC_ClockConfig+0x1d8>)
 8002d68:	4a4f      	ldr	r2, [pc, #316]	; (8002ea8 <HAL_RCC_ClockConfig+0x1dc>)
 8002d6a:	689b      	ldr	r3, [r3, #8]
 8002d6c:	f3c3 1303 	ubfx	r3, r3, #4, #4
 8002d70:	5cd3      	ldrb	r3, [r2, r3]
 8002d72:	40d8      	lsrs	r0, r3
 8002d74:	4b4d      	ldr	r3, [pc, #308]	; (8002eac <HAL_RCC_ClockConfig+0x1e0>)
 8002d76:	6018      	str	r0, [r3, #0]
 8002d78:	4b4d      	ldr	r3, [pc, #308]	; (8002eb0 <HAL_RCC_ClockConfig+0x1e4>)
 8002d7a:	6818      	ldr	r0, [r3, #0]
 8002d7c:	f7fd ff52 	bl	8000c24 <HAL_InitTick>
 8002d80:	2000      	movs	r0, #0
 8002d82:	e7a9      	b.n	8002cd8 <HAL_RCC_ClockConfig+0xc>
 8002d84:	b2ea      	uxtb	r2, r5
 8002d86:	701a      	strb	r2, [r3, #0]
 8002d88:	681b      	ldr	r3, [r3, #0]
 8002d8a:	f003 030f 	and.w	r3, r3, #15
 8002d8e:	42ab      	cmp	r3, r5
 8002d90:	d1a1      	bne.n	8002cd6 <HAL_RCC_ClockConfig+0xa>
 8002d92:	e7b9      	b.n	8002d08 <HAL_RCC_ClockConfig+0x3c>
 8002d94:	4b43      	ldr	r3, [pc, #268]	; (8002ea4 <HAL_RCC_ClockConfig+0x1d8>)
 8002d96:	f012 0f04 	tst.w	r2, #4
 8002d9a:	bf1e      	ittt	ne
 8002d9c:	6899      	ldrne	r1, [r3, #8]
 8002d9e:	f441 51e0 	orrne.w	r1, r1, #7168	; 0x1c00
 8002da2:	6099      	strne	r1, [r3, #8]
 8002da4:	0710      	lsls	r0, r2, #28
 8002da6:	bf42      	ittt	mi
 8002da8:	689a      	ldrmi	r2, [r3, #8]
 8002daa:	f442 4260 	orrmi.w	r2, r2, #57344	; 0xe000
 8002dae:	609a      	strmi	r2, [r3, #8]
 8002db0:	68a3      	ldr	r3, [r4, #8]
 8002db2:	f033 0280 	bics.w	r2, r3, #128	; 0x80
 8002db6:	d012      	beq.n	8002dde <HAL_RCC_ClockConfig+0x112>
 8002db8:	f023 0220 	bic.w	r2, r3, #32
 8002dbc:	2a90      	cmp	r2, #144	; 0x90
 8002dbe:	d00e      	beq.n	8002dde <HAL_RCC_ClockConfig+0x112>
 8002dc0:	f023 0240 	bic.w	r2, r3, #64	; 0x40
 8002dc4:	2aa0      	cmp	r2, #160	; 0xa0
 8002dc6:	d00a      	beq.n	8002dde <HAL_RCC_ClockConfig+0x112>
 8002dc8:	f023 0210 	bic.w	r2, r3, #16
 8002dcc:	2ac0      	cmp	r2, #192	; 0xc0
 8002dce:	d006      	beq.n	8002dde <HAL_RCC_ClockConfig+0x112>
 8002dd0:	2bf0      	cmp	r3, #240	; 0xf0
 8002dd2:	d004      	beq.n	8002dde <HAL_RCC_ClockConfig+0x112>
 8002dd4:	f240 2175 	movw	r1, #629	; 0x275
 8002dd8:	4830      	ldr	r0, [pc, #192]	; (8002e9c <HAL_RCC_ClockConfig+0x1d0>)
 8002dda:	f7fd fe14 	bl	8000a06 <assert_failed>
 8002dde:	4a31      	ldr	r2, [pc, #196]	; (8002ea4 <HAL_RCC_ClockConfig+0x1d8>)
 8002de0:	68a1      	ldr	r1, [r4, #8]
 8002de2:	6893      	ldr	r3, [r2, #8]
 8002de4:	f023 03f0 	bic.w	r3, r3, #240	; 0xf0
 8002de8:	430b      	orrs	r3, r1
 8002dea:	6093      	str	r3, [r2, #8]
 8002dec:	e78f      	b.n	8002d0e <HAL_RCC_ClockConfig+0x42>
 8002dee:	6863      	ldr	r3, [r4, #4]
 8002df0:	2b03      	cmp	r3, #3
 8002df2:	d904      	bls.n	8002dfe <HAL_RCC_ClockConfig+0x132>
 8002df4:	f44f 711f 	mov.w	r1, #636	; 0x27c
 8002df8:	4828      	ldr	r0, [pc, #160]	; (8002e9c <HAL_RCC_ClockConfig+0x1d0>)
 8002dfa:	f7fd fe04 	bl	8000a06 <assert_failed>
 8002dfe:	6862      	ldr	r2, [r4, #4]
 8002e00:	4b28      	ldr	r3, [pc, #160]	; (8002ea4 <HAL_RCC_ClockConfig+0x1d8>)
 8002e02:	2a01      	cmp	r2, #1
 8002e04:	d11e      	bne.n	8002e44 <HAL_RCC_ClockConfig+0x178>
 8002e06:	681b      	ldr	r3, [r3, #0]
 8002e08:	f413 3f00 	tst.w	r3, #131072	; 0x20000
 8002e0c:	f43f af63 	beq.w	8002cd6 <HAL_RCC_ClockConfig+0xa>
 8002e10:	4e24      	ldr	r6, [pc, #144]	; (8002ea4 <HAL_RCC_ClockConfig+0x1d8>)
 8002e12:	68b3      	ldr	r3, [r6, #8]
 8002e14:	f023 0303 	bic.w	r3, r3, #3
 8002e18:	4313      	orrs	r3, r2
 8002e1a:	60b3      	str	r3, [r6, #8]
 8002e1c:	f7fd ff4c 	bl	8000cb8 <HAL_GetTick>
 8002e20:	f241 3888 	movw	r8, #5000	; 0x1388
 8002e24:	4607      	mov	r7, r0
 8002e26:	68b3      	ldr	r3, [r6, #8]
 8002e28:	6862      	ldr	r2, [r4, #4]
 8002e2a:	f003 030c 	and.w	r3, r3, #12
 8002e2e:	ebb3 0f82 	cmp.w	r3, r2, lsl #2
 8002e32:	f43f af6f 	beq.w	8002d14 <HAL_RCC_ClockConfig+0x48>
 8002e36:	f7fd ff3f 	bl	8000cb8 <HAL_GetTick>
 8002e3a:	1bc0      	subs	r0, r0, r7
 8002e3c:	4540      	cmp	r0, r8
 8002e3e:	d9f2      	bls.n	8002e26 <HAL_RCC_ClockConfig+0x15a>
 8002e40:	2003      	movs	r0, #3
 8002e42:	e749      	b.n	8002cd8 <HAL_RCC_ClockConfig+0xc>
 8002e44:	1e91      	subs	r1, r2, #2
 8002e46:	2901      	cmp	r1, #1
 8002e48:	681b      	ldr	r3, [r3, #0]
 8002e4a:	d802      	bhi.n	8002e52 <HAL_RCC_ClockConfig+0x186>
 8002e4c:	f013 7f00 	tst.w	r3, #33554432	; 0x2000000
 8002e50:	e7dc      	b.n	8002e0c <HAL_RCC_ClockConfig+0x140>
 8002e52:	f013 0f02 	tst.w	r3, #2
 8002e56:	e7d9      	b.n	8002e0c <HAL_RCC_ClockConfig+0x140>
 8002e58:	b2ea      	uxtb	r2, r5
 8002e5a:	701a      	strb	r2, [r3, #0]
 8002e5c:	681b      	ldr	r3, [r3, #0]
 8002e5e:	f003 030f 	and.w	r3, r3, #15
 8002e62:	42ab      	cmp	r3, r5
 8002e64:	f47f af37 	bne.w	8002cd6 <HAL_RCC_ClockConfig+0xa>
 8002e68:	e75b      	b.n	8002d22 <HAL_RCC_ClockConfig+0x56>
 8002e6a:	68e3      	ldr	r3, [r4, #12]
 8002e6c:	f433 5280 	bics.w	r2, r3, #4096	; 0x1000
 8002e70:	d00c      	beq.n	8002e8c <HAL_RCC_ClockConfig+0x1c0>
 8002e72:	f423 6200 	bic.w	r2, r3, #2048	; 0x800
 8002e76:	f5b2 5fa0 	cmp.w	r2, #5120	; 0x1400
 8002e7a:	d007      	beq.n	8002e8c <HAL_RCC_ClockConfig+0x1c0>
 8002e7c:	f5b3 5fc0 	cmp.w	r3, #6144	; 0x1800
 8002e80:	d004      	beq.n	8002e8c <HAL_RCC_ClockConfig+0x1c0>
 8002e82:	f240 21ba 	movw	r1, #698	; 0x2ba
 8002e86:	4805      	ldr	r0, [pc, #20]	; (8002e9c <HAL_RCC_ClockConfig+0x1d0>)
 8002e88:	f7fd fdbd 	bl	8000a06 <assert_failed>
 8002e8c:	4a05      	ldr	r2, [pc, #20]	; (8002ea4 <HAL_RCC_ClockConfig+0x1d8>)
 8002e8e:	68e1      	ldr	r1, [r4, #12]
 8002e90:	6893      	ldr	r3, [r2, #8]
 8002e92:	f423 53e0 	bic.w	r3, r3, #7168	; 0x1c00
 8002e96:	430b      	orrs	r3, r1
 8002e98:	6093      	str	r3, [r2, #8]
 8002e9a:	e746      	b.n	8002d2a <HAL_RCC_ClockConfig+0x5e>
 8002e9c:	08003a30 	.word	0x08003a30
 8002ea0:	40023c00 	.word	0x40023c00
 8002ea4:	40023800 	.word	0x40023800
 8002ea8:	0800392c 	.word	0x0800392c
 8002eac:	2000000c 	.word	0x2000000c
 8002eb0:	20000014 	.word	0x20000014

08002eb4 <HAL_RCC_GetPCLK1Freq>:
 8002eb4:	4b04      	ldr	r3, [pc, #16]	; (8002ec8 <HAL_RCC_GetPCLK1Freq+0x14>)
 8002eb6:	4a05      	ldr	r2, [pc, #20]	; (8002ecc <HAL_RCC_GetPCLK1Freq+0x18>)
 8002eb8:	689b      	ldr	r3, [r3, #8]
 8002eba:	f3c3 2382 	ubfx	r3, r3, #10, #3
 8002ebe:	5cd3      	ldrb	r3, [r2, r3]
 8002ec0:	4a03      	ldr	r2, [pc, #12]	; (8002ed0 <HAL_RCC_GetPCLK1Freq+0x1c>)
 8002ec2:	6810      	ldr	r0, [r2, #0]
 8002ec4:	40d8      	lsrs	r0, r3
 8002ec6:	4770      	bx	lr
 8002ec8:	40023800 	.word	0x40023800
 8002ecc:	0800393c 	.word	0x0800393c
 8002ed0:	2000000c 	.word	0x2000000c

08002ed4 <HAL_RCC_GetPCLK2Freq>:
 8002ed4:	4b04      	ldr	r3, [pc, #16]	; (8002ee8 <HAL_RCC_GetPCLK2Freq+0x14>)
 8002ed6:	4a05      	ldr	r2, [pc, #20]	; (8002eec <HAL_RCC_GetPCLK2Freq+0x18>)
 8002ed8:	689b      	ldr	r3, [r3, #8]
 8002eda:	f3c3 3342 	ubfx	r3, r3, #13, #3
 8002ede:	5cd3      	ldrb	r3, [r2, r3]
 8002ee0:	4a03      	ldr	r2, [pc, #12]	; (8002ef0 <HAL_RCC_GetPCLK2Freq+0x1c>)
 8002ee2:	6810      	ldr	r0, [r2, #0]
 8002ee4:	40d8      	lsrs	r0, r3
 8002ee6:	4770      	bx	lr
 8002ee8:	40023800 	.word	0x40023800
 8002eec:	0800393c 	.word	0x0800393c
 8002ef0:	2000000c 	.word	0x2000000c

08002ef4 <HAL_RCCEx_PeriphCLKConfig>:
 8002ef4:	6803      	ldr	r3, [r0, #0]
 8002ef6:	3b01      	subs	r3, #1
 8002ef8:	2b0e      	cmp	r3, #14
 8002efa:	b5f7      	push	{r0, r1, r2, r4, r5, r6, r7, lr}
 8002efc:	4604      	mov	r4, r0
 8002efe:	d904      	bls.n	8002f0a <HAL_RCCEx_PeriphCLKConfig+0x16>
 8002f00:	f640 11d9 	movw	r1, #2521	; 0x9d9
 8002f04:	4872      	ldr	r0, [pc, #456]	; (80030d0 <HAL_RCCEx_PeriphCLKConfig+0x1dc>)
 8002f06:	f7fd fd7e 	bl	8000a06 <assert_failed>
 8002f0a:	6823      	ldr	r3, [r4, #0]
 8002f0c:	f013 0f05 	tst.w	r3, #5
 8002f10:	d10b      	bne.n	8002f2a <HAL_RCCEx_PeriphCLKConfig+0x36>
 8002f12:	6823      	ldr	r3, [r4, #0]
 8002f14:	079a      	lsls	r2, r3, #30
 8002f16:	d44d      	bmi.n	8002fb4 <HAL_RCCEx_PeriphCLKConfig+0xc0>
 8002f18:	6820      	ldr	r0, [r4, #0]
 8002f1a:	f010 0008 	ands.w	r0, r0, #8
 8002f1e:	bf1f      	itttt	ne
 8002f20:	4b6c      	ldrne	r3, [pc, #432]	; (80030d4 <HAL_RCCEx_PeriphCLKConfig+0x1e0>)
 8002f22:	7d22      	ldrbne	r2, [r4, #20]
 8002f24:	601a      	strne	r2, [r3, #0]
 8002f26:	2000      	movne	r0, #0
 8002f28:	e042      	b.n	8002fb0 <HAL_RCCEx_PeriphCLKConfig+0xbc>
 8002f2a:	68e3      	ldr	r3, [r4, #12]
 8002f2c:	3b02      	subs	r3, #2
 8002f2e:	2b05      	cmp	r3, #5
 8002f30:	d904      	bls.n	8002f3c <HAL_RCCEx_PeriphCLKConfig+0x48>
 8002f32:	f44f 611e 	mov.w	r1, #2528	; 0x9e0
 8002f36:	4866      	ldr	r0, [pc, #408]	; (80030d0 <HAL_RCCEx_PeriphCLKConfig+0x1dc>)
 8002f38:	f7fd fd65 	bl	8000a06 <assert_failed>
 8002f3c:	68a3      	ldr	r3, [r4, #8]
 8002f3e:	3bc0      	subs	r3, #192	; 0xc0
 8002f40:	2bf0      	cmp	r3, #240	; 0xf0
 8002f42:	d904      	bls.n	8002f4e <HAL_RCCEx_PeriphCLKConfig+0x5a>
 8002f44:	f640 11e1 	movw	r1, #2529	; 0x9e1
 8002f48:	4861      	ldr	r0, [pc, #388]	; (80030d0 <HAL_RCCEx_PeriphCLKConfig+0x1dc>)
 8002f4a:	f7fd fd5c 	bl	8000a06 <assert_failed>
 8002f4e:	6863      	ldr	r3, [r4, #4]
 8002f50:	3b02      	subs	r3, #2
 8002f52:	2b3d      	cmp	r3, #61	; 0x3d
 8002f54:	d904      	bls.n	8002f60 <HAL_RCCEx_PeriphCLKConfig+0x6c>
 8002f56:	f640 11e3 	movw	r1, #2531	; 0x9e3
 8002f5a:	485d      	ldr	r0, [pc, #372]	; (80030d0 <HAL_RCCEx_PeriphCLKConfig+0x1dc>)
 8002f5c:	f7fd fd53 	bl	8000a06 <assert_failed>
 8002f60:	4e5d      	ldr	r6, [pc, #372]	; (80030d8 <HAL_RCCEx_PeriphCLKConfig+0x1e4>)
 8002f62:	4d5e      	ldr	r5, [pc, #376]	; (80030dc <HAL_RCCEx_PeriphCLKConfig+0x1e8>)
 8002f64:	2300      	movs	r3, #0
 8002f66:	6033      	str	r3, [r6, #0]
 8002f68:	f7fd fea6 	bl	8000cb8 <HAL_GetTick>
 8002f6c:	4607      	mov	r7, r0
 8002f6e:	682b      	ldr	r3, [r5, #0]
 8002f70:	011b      	lsls	r3, r3, #4
 8002f72:	d417      	bmi.n	8002fa4 <HAL_RCCEx_PeriphCLKConfig+0xb0>
 8002f74:	e9d4 2302 	ldrd	r2, r3, [r4, #8]
 8002f78:	071b      	lsls	r3, r3, #28
 8002f7a:	ea43 1382 	orr.w	r3, r3, r2, lsl #6
 8002f7e:	6862      	ldr	r2, [r4, #4]
 8002f80:	4313      	orrs	r3, r2
 8002f82:	f8c5 3084 	str.w	r3, [r5, #132]	; 0x84
 8002f86:	2301      	movs	r3, #1
 8002f88:	6033      	str	r3, [r6, #0]
 8002f8a:	f7fd fe95 	bl	8000cb8 <HAL_GetTick>
 8002f8e:	4d53      	ldr	r5, [pc, #332]	; (80030dc <HAL_RCCEx_PeriphCLKConfig+0x1e8>)
 8002f90:	4606      	mov	r6, r0
 8002f92:	682b      	ldr	r3, [r5, #0]
 8002f94:	0118      	lsls	r0, r3, #4
 8002f96:	d4bc      	bmi.n	8002f12 <HAL_RCCEx_PeriphCLKConfig+0x1e>
 8002f98:	f7fd fe8e 	bl	8000cb8 <HAL_GetTick>
 8002f9c:	1b80      	subs	r0, r0, r6
 8002f9e:	2802      	cmp	r0, #2
 8002fa0:	d9f7      	bls.n	8002f92 <HAL_RCCEx_PeriphCLKConfig+0x9e>
 8002fa2:	e004      	b.n	8002fae <HAL_RCCEx_PeriphCLKConfig+0xba>
 8002fa4:	f7fd fe88 	bl	8000cb8 <HAL_GetTick>
 8002fa8:	1bc0      	subs	r0, r0, r7
 8002faa:	2802      	cmp	r0, #2
 8002fac:	d9df      	bls.n	8002f6e <HAL_RCCEx_PeriphCLKConfig+0x7a>
 8002fae:	2003      	movs	r0, #3
 8002fb0:	b003      	add	sp, #12
 8002fb2:	bdf0      	pop	{r4, r5, r6, r7, pc}
 8002fb4:	6923      	ldr	r3, [r4, #16]
 8002fb6:	f5b3 7f80 	cmp.w	r3, #256	; 0x100
 8002fba:	d02e      	beq.n	800301a <HAL_RCCEx_PeriphCLKConfig+0x126>
 8002fbc:	f5b3 7f00 	cmp.w	r3, #512	; 0x200
 8002fc0:	d02b      	beq.n	800301a <HAL_RCCEx_PeriphCLKConfig+0x126>
 8002fc2:	4a47      	ldr	r2, [pc, #284]	; (80030e0 <HAL_RCCEx_PeriphCLKConfig+0x1ec>)
 8002fc4:	f423 20a0 	bic.w	r0, r3, #327680	; 0x50000
 8002fc8:	4290      	cmp	r0, r2
 8002fca:	f423 3180 	bic.w	r1, r3, #65536	; 0x10000
 8002fce:	d024      	beq.n	800301a <HAL_RCCEx_PeriphCLKConfig+0x126>
 8002fd0:	f423 2010 	bic.w	r0, r3, #589824	; 0x90000
 8002fd4:	f502 3200 	add.w	r2, r2, #131072	; 0x20000
 8002fd8:	4290      	cmp	r0, r2
 8002fda:	d01e      	beq.n	800301a <HAL_RCCEx_PeriphCLKConfig+0x126>
 8002fdc:	4841      	ldr	r0, [pc, #260]	; (80030e4 <HAL_RCCEx_PeriphCLKConfig+0x1f0>)
 8002fde:	f423 3240 	bic.w	r2, r3, #196608	; 0x30000
 8002fe2:	4282      	cmp	r2, r0
 8002fe4:	d019      	beq.n	800301a <HAL_RCCEx_PeriphCLKConfig+0x126>
 8002fe6:	f423 1388 	bic.w	r3, r3, #1114112	; 0x110000
 8002fea:	f500 20c0 	add.w	r0, r0, #393216	; 0x60000
 8002fee:	4283      	cmp	r3, r0
 8002ff0:	d013      	beq.n	800301a <HAL_RCCEx_PeriphCLKConfig+0x126>
 8002ff2:	4b3d      	ldr	r3, [pc, #244]	; (80030e8 <HAL_RCCEx_PeriphCLKConfig+0x1f4>)
 8002ff4:	429a      	cmp	r2, r3
 8002ff6:	d010      	beq.n	800301a <HAL_RCCEx_PeriphCLKConfig+0x126>
 8002ff8:	f503 2380 	add.w	r3, r3, #262144	; 0x40000
 8002ffc:	429a      	cmp	r2, r3
 8002ffe:	d00c      	beq.n	800301a <HAL_RCCEx_PeriphCLKConfig+0x126>
 8003000:	f503 2380 	add.w	r3, r3, #262144	; 0x40000
 8003004:	429a      	cmp	r2, r3
 8003006:	d008      	beq.n	800301a <HAL_RCCEx_PeriphCLKConfig+0x126>
 8003008:	f503 2380 	add.w	r3, r3, #262144	; 0x40000
 800300c:	4299      	cmp	r1, r3
 800300e:	d004      	beq.n	800301a <HAL_RCCEx_PeriphCLKConfig+0x126>
 8003010:	f640 2112 	movw	r1, #2578	; 0xa12
 8003014:	482e      	ldr	r0, [pc, #184]	; (80030d0 <HAL_RCCEx_PeriphCLKConfig+0x1dc>)
 8003016:	f7fd fcf6 	bl	8000a06 <assert_failed>
 800301a:	2300      	movs	r3, #0
 800301c:	9301      	str	r3, [sp, #4]
 800301e:	4b2f      	ldr	r3, [pc, #188]	; (80030dc <HAL_RCCEx_PeriphCLKConfig+0x1e8>)
 8003020:	4d32      	ldr	r5, [pc, #200]	; (80030ec <HAL_RCCEx_PeriphCLKConfig+0x1f8>)
 8003022:	6c1a      	ldr	r2, [r3, #64]	; 0x40
 8003024:	f042 5280 	orr.w	r2, r2, #268435456	; 0x10000000
 8003028:	641a      	str	r2, [r3, #64]	; 0x40
 800302a:	6c1b      	ldr	r3, [r3, #64]	; 0x40
 800302c:	f003 5380 	and.w	r3, r3, #268435456	; 0x10000000
 8003030:	9301      	str	r3, [sp, #4]
 8003032:	9b01      	ldr	r3, [sp, #4]
 8003034:	682b      	ldr	r3, [r5, #0]
 8003036:	f443 7380 	orr.w	r3, r3, #256	; 0x100
 800303a:	602b      	str	r3, [r5, #0]
 800303c:	f7fd fe3c 	bl	8000cb8 <HAL_GetTick>
 8003040:	4606      	mov	r6, r0
 8003042:	682b      	ldr	r3, [r5, #0]
 8003044:	05d9      	lsls	r1, r3, #23
 8003046:	d51a      	bpl.n	800307e <HAL_RCCEx_PeriphCLKConfig+0x18a>
 8003048:	4d24      	ldr	r5, [pc, #144]	; (80030dc <HAL_RCCEx_PeriphCLKConfig+0x1e8>)
 800304a:	6f2b      	ldr	r3, [r5, #112]	; 0x70
 800304c:	f413 7340 	ands.w	r3, r3, #768	; 0x300
 8003050:	d11b      	bne.n	800308a <HAL_RCCEx_PeriphCLKConfig+0x196>
 8003052:	6923      	ldr	r3, [r4, #16]
 8003054:	f403 7240 	and.w	r2, r3, #768	; 0x300
 8003058:	f5b2 7f40 	cmp.w	r2, #768	; 0x300
 800305c:	4a1f      	ldr	r2, [pc, #124]	; (80030dc <HAL_RCCEx_PeriphCLKConfig+0x1e8>)
 800305e:	d133      	bne.n	80030c8 <HAL_RCCEx_PeriphCLKConfig+0x1d4>
 8003060:	6891      	ldr	r1, [r2, #8]
 8003062:	f023 4070 	bic.w	r0, r3, #4026531840	; 0xf0000000
 8003066:	f421 11f8 	bic.w	r1, r1, #2031616	; 0x1f0000
 800306a:	f420 7040 	bic.w	r0, r0, #768	; 0x300
 800306e:	4301      	orrs	r1, r0
 8003070:	6091      	str	r1, [r2, #8]
 8003072:	6f11      	ldr	r1, [r2, #112]	; 0x70
 8003074:	f3c3 030b 	ubfx	r3, r3, #0, #12
 8003078:	430b      	orrs	r3, r1
 800307a:	6713      	str	r3, [r2, #112]	; 0x70
 800307c:	e74c      	b.n	8002f18 <HAL_RCCEx_PeriphCLKConfig+0x24>
 800307e:	f7fd fe1b 	bl	8000cb8 <HAL_GetTick>
 8003082:	1b80      	subs	r0, r0, r6
 8003084:	2802      	cmp	r0, #2
 8003086:	d9dc      	bls.n	8003042 <HAL_RCCEx_PeriphCLKConfig+0x14e>
 8003088:	e791      	b.n	8002fae <HAL_RCCEx_PeriphCLKConfig+0xba>
 800308a:	6922      	ldr	r2, [r4, #16]
 800308c:	f402 7240 	and.w	r2, r2, #768	; 0x300
 8003090:	4293      	cmp	r3, r2
 8003092:	d0de      	beq.n	8003052 <HAL_RCCEx_PeriphCLKConfig+0x15e>
 8003094:	6f2b      	ldr	r3, [r5, #112]	; 0x70
 8003096:	4a16      	ldr	r2, [pc, #88]	; (80030f0 <HAL_RCCEx_PeriphCLKConfig+0x1fc>)
 8003098:	2101      	movs	r1, #1
 800309a:	6011      	str	r1, [r2, #0]
 800309c:	f423 7340 	bic.w	r3, r3, #768	; 0x300
 80030a0:	2100      	movs	r1, #0
 80030a2:	6011      	str	r1, [r2, #0]
 80030a4:	672b      	str	r3, [r5, #112]	; 0x70
 80030a6:	6f2b      	ldr	r3, [r5, #112]	; 0x70
 80030a8:	07da      	lsls	r2, r3, #31
 80030aa:	d5d2      	bpl.n	8003052 <HAL_RCCEx_PeriphCLKConfig+0x15e>
 80030ac:	f7fd fe04 	bl	8000cb8 <HAL_GetTick>
 80030b0:	f241 3788 	movw	r7, #5000	; 0x1388
 80030b4:	4606      	mov	r6, r0
 80030b6:	6f2b      	ldr	r3, [r5, #112]	; 0x70
 80030b8:	079b      	lsls	r3, r3, #30
 80030ba:	d4ca      	bmi.n	8003052 <HAL_RCCEx_PeriphCLKConfig+0x15e>
 80030bc:	f7fd fdfc 	bl	8000cb8 <HAL_GetTick>
 80030c0:	1b80      	subs	r0, r0, r6
 80030c2:	42b8      	cmp	r0, r7
 80030c4:	d9f7      	bls.n	80030b6 <HAL_RCCEx_PeriphCLKConfig+0x1c2>
 80030c6:	e772      	b.n	8002fae <HAL_RCCEx_PeriphCLKConfig+0xba>
 80030c8:	6891      	ldr	r1, [r2, #8]
 80030ca:	f421 11f8 	bic.w	r1, r1, #2031616	; 0x1f0000
 80030ce:	e7cf      	b.n	8003070 <HAL_RCCEx_PeriphCLKConfig+0x17c>
 80030d0:	08003a68 	.word	0x08003a68
 80030d4:	424711e0 	.word	0x424711e0
 80030d8:	42470068 	.word	0x42470068
 80030dc:	40023800 	.word	0x40023800
 80030e0:	00020300 	.word	0x00020300
 80030e4:	00080300 	.word	0x00080300
 80030e8:	00100300 	.word	0x00100300
 80030ec:	40007000 	.word	0x40007000
 80030f0:	42470e40 	.word	0x42470e40

080030f4 <HAL_RTC_WaitForSynchro>:
 80030f4:	6802      	ldr	r2, [r0, #0]
 80030f6:	b538      	push	{r3, r4, r5, lr}
 80030f8:	68d3      	ldr	r3, [r2, #12]
 80030fa:	f023 03a0 	bic.w	r3, r3, #160	; 0xa0
 80030fe:	60d3      	str	r3, [r2, #12]
 8003100:	4604      	mov	r4, r0
 8003102:	f7fd fdd9 	bl	8000cb8 <HAL_GetTick>
 8003106:	4605      	mov	r5, r0
 8003108:	6823      	ldr	r3, [r4, #0]
 800310a:	68db      	ldr	r3, [r3, #12]
 800310c:	069b      	lsls	r3, r3, #26
 800310e:	d501      	bpl.n	8003114 <HAL_RTC_WaitForSynchro+0x20>
 8003110:	2000      	movs	r0, #0
 8003112:	bd38      	pop	{r3, r4, r5, pc}
 8003114:	f7fd fdd0 	bl	8000cb8 <HAL_GetTick>
 8003118:	1b40      	subs	r0, r0, r5
 800311a:	f5b0 7f7a 	cmp.w	r0, #1000	; 0x3e8
 800311e:	d9f3      	bls.n	8003108 <HAL_RTC_WaitForSynchro+0x14>
 8003120:	2003      	movs	r0, #3
 8003122:	e7f6      	b.n	8003112 <HAL_RTC_WaitForSynchro+0x1e>

08003124 <RTC_EnterInitMode>:
 8003124:	b538      	push	{r3, r4, r5, lr}
 8003126:	6803      	ldr	r3, [r0, #0]
 8003128:	68da      	ldr	r2, [r3, #12]
 800312a:	0652      	lsls	r2, r2, #25
 800312c:	4604      	mov	r4, r0
 800312e:	d501      	bpl.n	8003134 <RTC_EnterInitMode+0x10>
 8003130:	2000      	movs	r0, #0
 8003132:	bd38      	pop	{r3, r4, r5, pc}
 8003134:	f04f 32ff 	mov.w	r2, #4294967295	; 0xffffffff
 8003138:	60da      	str	r2, [r3, #12]
 800313a:	f7fd fdbd 	bl	8000cb8 <HAL_GetTick>
 800313e:	4605      	mov	r5, r0
 8003140:	6823      	ldr	r3, [r4, #0]
 8003142:	68db      	ldr	r3, [r3, #12]
 8003144:	065b      	lsls	r3, r3, #25
 8003146:	d4f3      	bmi.n	8003130 <RTC_EnterInitMode+0xc>
 8003148:	f7fd fdb6 	bl	8000cb8 <HAL_GetTick>
 800314c:	1b40      	subs	r0, r0, r5
 800314e:	f5b0 7f7a 	cmp.w	r0, #1000	; 0x3e8
 8003152:	d9f5      	bls.n	8003140 <RTC_EnterInitMode+0x1c>
 8003154:	2003      	movs	r0, #3
 8003156:	e7ec      	b.n	8003132 <RTC_EnterInitMode+0xe>

08003158 <HAL_RTC_Init>:
 8003158:	b538      	push	{r3, r4, r5, lr}
 800315a:	4604      	mov	r4, r0
 800315c:	2800      	cmp	r0, #0
 800315e:	d04c      	beq.n	80031fa <HAL_RTC_Init+0xa2>
 8003160:	6843      	ldr	r3, [r0, #4]
 8003162:	f033 0340 	bics.w	r3, r3, #64	; 0x40
 8003166:	d003      	beq.n	8003170 <HAL_RTC_Init+0x18>
 8003168:	21ff      	movs	r1, #255	; 0xff
 800316a:	483d      	ldr	r0, [pc, #244]	; (8003260 <HAL_RTC_Init+0x108>)
 800316c:	f7fd fc4b 	bl	8000a06 <assert_failed>
 8003170:	68a3      	ldr	r3, [r4, #8]
 8003172:	2b7f      	cmp	r3, #127	; 0x7f
 8003174:	d904      	bls.n	8003180 <HAL_RTC_Init+0x28>
 8003176:	f44f 7180 	mov.w	r1, #256	; 0x100
 800317a:	4839      	ldr	r0, [pc, #228]	; (8003260 <HAL_RTC_Init+0x108>)
 800317c:	f7fd fc43 	bl	8000a06 <assert_failed>
 8003180:	68e3      	ldr	r3, [r4, #12]
 8003182:	f5b3 4f00 	cmp.w	r3, #32768	; 0x8000
 8003186:	d304      	bcc.n	8003192 <HAL_RTC_Init+0x3a>
 8003188:	f240 1101 	movw	r1, #257	; 0x101
 800318c:	4834      	ldr	r0, [pc, #208]	; (8003260 <HAL_RTC_Init+0x108>)
 800318e:	f7fd fc3a 	bl	8000a06 <assert_failed>
 8003192:	6923      	ldr	r3, [r4, #16]
 8003194:	f433 03c0 	bics.w	r3, r3, #6291456	; 0x600000
 8003198:	d004      	beq.n	80031a4 <HAL_RTC_Init+0x4c>
 800319a:	f44f 7181 	mov.w	r1, #258	; 0x102
 800319e:	4830      	ldr	r0, [pc, #192]	; (8003260 <HAL_RTC_Init+0x108>)
 80031a0:	f7fd fc31 	bl	8000a06 <assert_failed>
 80031a4:	6963      	ldr	r3, [r4, #20]
 80031a6:	f433 1380 	bics.w	r3, r3, #1048576	; 0x100000
 80031aa:	d004      	beq.n	80031b6 <HAL_RTC_Init+0x5e>
 80031ac:	f240 1103 	movw	r1, #259	; 0x103
 80031b0:	482b      	ldr	r0, [pc, #172]	; (8003260 <HAL_RTC_Init+0x108>)
 80031b2:	f7fd fc28 	bl	8000a06 <assert_failed>
 80031b6:	69a3      	ldr	r3, [r4, #24]
 80031b8:	f433 2380 	bics.w	r3, r3, #262144	; 0x40000
 80031bc:	d004      	beq.n	80031c8 <HAL_RTC_Init+0x70>
 80031be:	f44f 7182 	mov.w	r1, #260	; 0x104
 80031c2:	4827      	ldr	r0, [pc, #156]	; (8003260 <HAL_RTC_Init+0x108>)
 80031c4:	f7fd fc1f 	bl	8000a06 <assert_failed>
 80031c8:	7f63      	ldrb	r3, [r4, #29]
 80031ca:	f003 02ff 	and.w	r2, r3, #255	; 0xff
 80031ce:	b91b      	cbnz	r3, 80031d8 <HAL_RTC_Init+0x80>
 80031d0:	7722      	strb	r2, [r4, #28]
 80031d2:	4620      	mov	r0, r4
 80031d4:	f7fd fc52 	bl	8000a7c <HAL_RTC_MspInit>
 80031d8:	2302      	movs	r3, #2
 80031da:	7763      	strb	r3, [r4, #29]
 80031dc:	6823      	ldr	r3, [r4, #0]
 80031de:	22ca      	movs	r2, #202	; 0xca
 80031e0:	625a      	str	r2, [r3, #36]	; 0x24
 80031e2:	2253      	movs	r2, #83	; 0x53
 80031e4:	625a      	str	r2, [r3, #36]	; 0x24
 80031e6:	4620      	mov	r0, r4
 80031e8:	f7ff ff9c 	bl	8003124 <RTC_EnterInitMode>
 80031ec:	6823      	ldr	r3, [r4, #0]
 80031ee:	4605      	mov	r5, r0
 80031f0:	b128      	cbz	r0, 80031fe <HAL_RTC_Init+0xa6>
 80031f2:	22ff      	movs	r2, #255	; 0xff
 80031f4:	625a      	str	r2, [r3, #36]	; 0x24
 80031f6:	2304      	movs	r3, #4
 80031f8:	7763      	strb	r3, [r4, #29]
 80031fa:	2501      	movs	r5, #1
 80031fc:	e02e      	b.n	800325c <HAL_RTC_Init+0x104>
 80031fe:	689a      	ldr	r2, [r3, #8]
 8003200:	6920      	ldr	r0, [r4, #16]
 8003202:	f422 02e0 	bic.w	r2, r2, #7340032	; 0x700000
 8003206:	f022 0240 	bic.w	r2, r2, #64	; 0x40
 800320a:	609a      	str	r2, [r3, #8]
 800320c:	6862      	ldr	r2, [r4, #4]
 800320e:	6899      	ldr	r1, [r3, #8]
 8003210:	4302      	orrs	r2, r0
 8003212:	6960      	ldr	r0, [r4, #20]
 8003214:	4302      	orrs	r2, r0
 8003216:	430a      	orrs	r2, r1
 8003218:	609a      	str	r2, [r3, #8]
 800321a:	68e2      	ldr	r2, [r4, #12]
 800321c:	611a      	str	r2, [r3, #16]
 800321e:	691a      	ldr	r2, [r3, #16]
 8003220:	68a1      	ldr	r1, [r4, #8]
 8003222:	ea42 4201 	orr.w	r2, r2, r1, lsl #16
 8003226:	611a      	str	r2, [r3, #16]
 8003228:	68da      	ldr	r2, [r3, #12]
 800322a:	f022 0280 	bic.w	r2, r2, #128	; 0x80
 800322e:	60da      	str	r2, [r3, #12]
 8003230:	689b      	ldr	r3, [r3, #8]
 8003232:	069b      	lsls	r3, r3, #26
 8003234:	d405      	bmi.n	8003242 <HAL_RTC_Init+0xea>
 8003236:	4620      	mov	r0, r4
 8003238:	f7ff ff5c 	bl	80030f4 <HAL_RTC_WaitForSynchro>
 800323c:	b108      	cbz	r0, 8003242 <HAL_RTC_Init+0xea>
 800323e:	6823      	ldr	r3, [r4, #0]
 8003240:	e7d7      	b.n	80031f2 <HAL_RTC_Init+0x9a>
 8003242:	6823      	ldr	r3, [r4, #0]
 8003244:	69a1      	ldr	r1, [r4, #24]
 8003246:	6c1a      	ldr	r2, [r3, #64]	; 0x40
 8003248:	f422 2280 	bic.w	r2, r2, #262144	; 0x40000
 800324c:	641a      	str	r2, [r3, #64]	; 0x40
 800324e:	6c1a      	ldr	r2, [r3, #64]	; 0x40
 8003250:	430a      	orrs	r2, r1
 8003252:	641a      	str	r2, [r3, #64]	; 0x40
 8003254:	22ff      	movs	r2, #255	; 0xff
 8003256:	625a      	str	r2, [r3, #36]	; 0x24
 8003258:	2301      	movs	r3, #1
 800325a:	7763      	strb	r3, [r4, #29]
 800325c:	4628      	mov	r0, r5
 800325e:	bd38      	pop	{r3, r4, r5, pc}
 8003260:	08003aa3 	.word	0x08003aa3

08003264 <RTC_ByteToBcd2>:
 8003264:	2300      	movs	r3, #0
 8003266:	2809      	cmp	r0, #9
 8003268:	d803      	bhi.n	8003272 <RTC_ByteToBcd2+0xe>
 800326a:	ea40 1003 	orr.w	r0, r0, r3, lsl #4
 800326e:	b2c0      	uxtb	r0, r0
 8003270:	4770      	bx	lr
 8003272:	380a      	subs	r0, #10
 8003274:	3301      	adds	r3, #1
 8003276:	b2c0      	uxtb	r0, r0
 8003278:	e7f5      	b.n	8003266 <RTC_ByteToBcd2+0x2>

0800327a <RTC_Bcd2ToByte>:
 800327a:	0903      	lsrs	r3, r0, #4
 800327c:	eb03 0383 	add.w	r3, r3, r3, lsl #2
 8003280:	f000 000f 	and.w	r0, r0, #15
 8003284:	eb00 0043 	add.w	r0, r0, r3, lsl #1
 8003288:	b2c0      	uxtb	r0, r0
 800328a:	4770      	bx	lr

0800328c <HAL_RTC_SetTime>:
 800328c:	2a01      	cmp	r2, #1
 800328e:	b5f8      	push	{r3, r4, r5, r6, r7, lr}
 8003290:	4606      	mov	r6, r0
 8003292:	460c      	mov	r4, r1
 8003294:	4615      	mov	r5, r2
 8003296:	d904      	bls.n	80032a2 <HAL_RTC_SetTime+0x16>
 8003298:	f240 21da 	movw	r1, #730	; 0x2da
 800329c:	486d      	ldr	r0, [pc, #436]	; (8003454 <HAL_RTC_SetTime+0x1c8>)
 800329e:	f7fd fbb2 	bl	8000a06 <assert_failed>
 80032a2:	68e3      	ldr	r3, [r4, #12]
 80032a4:	f5b3 3f00 	cmp.w	r3, #131072	; 0x20000
 80032a8:	d007      	beq.n	80032ba <HAL_RTC_SetTime+0x2e>
 80032aa:	f433 3380 	bics.w	r3, r3, #65536	; 0x10000
 80032ae:	d004      	beq.n	80032ba <HAL_RTC_SetTime+0x2e>
 80032b0:	f240 21db 	movw	r1, #731	; 0x2db
 80032b4:	4867      	ldr	r0, [pc, #412]	; (8003454 <HAL_RTC_SetTime+0x1c8>)
 80032b6:	f7fd fba6 	bl	8000a06 <assert_failed>
 80032ba:	6923      	ldr	r3, [r4, #16]
 80032bc:	f433 2380 	bics.w	r3, r3, #262144	; 0x40000
 80032c0:	d004      	beq.n	80032cc <HAL_RTC_SetTime+0x40>
 80032c2:	f44f 7137 	mov.w	r1, #732	; 0x2dc
 80032c6:	4863      	ldr	r0, [pc, #396]	; (8003454 <HAL_RTC_SetTime+0x1c8>)
 80032c8:	f7fd fb9d 	bl	8000a06 <assert_failed>
 80032cc:	7f33      	ldrb	r3, [r6, #28]
 80032ce:	2b01      	cmp	r3, #1
 80032d0:	f04f 0702 	mov.w	r7, #2
 80032d4:	d04f      	beq.n	8003376 <HAL_RTC_SetTime+0xea>
 80032d6:	2301      	movs	r3, #1
 80032d8:	7733      	strb	r3, [r6, #28]
 80032da:	7777      	strb	r7, [r6, #29]
 80032dc:	6833      	ldr	r3, [r6, #0]
 80032de:	7820      	ldrb	r0, [r4, #0]
 80032e0:	2d00      	cmp	r5, #0
 80032e2:	d150      	bne.n	8003386 <HAL_RTC_SetTime+0xfa>
 80032e4:	689b      	ldr	r3, [r3, #8]
 80032e6:	065a      	lsls	r2, r3, #25
 80032e8:	d547      	bpl.n	800337a <HAL_RTC_SetTime+0xee>
 80032ea:	3801      	subs	r0, #1
 80032ec:	280b      	cmp	r0, #11
 80032ee:	d904      	bls.n	80032fa <HAL_RTC_SetTime+0x6e>
 80032f0:	f240 21e7 	movw	r1, #743	; 0x2e7
 80032f4:	4857      	ldr	r0, [pc, #348]	; (8003454 <HAL_RTC_SetTime+0x1c8>)
 80032f6:	f7fd fb86 	bl	8000a06 <assert_failed>
 80032fa:	78e3      	ldrb	r3, [r4, #3]
 80032fc:	f013 0fbf 	tst.w	r3, #191	; 0xbf
 8003300:	d004      	beq.n	800330c <HAL_RTC_SetTime+0x80>
 8003302:	f44f 713a 	mov.w	r1, #744	; 0x2e8
 8003306:	4853      	ldr	r0, [pc, #332]	; (8003454 <HAL_RTC_SetTime+0x1c8>)
 8003308:	f7fd fb7d 	bl	8000a06 <assert_failed>
 800330c:	7863      	ldrb	r3, [r4, #1]
 800330e:	2b3b      	cmp	r3, #59	; 0x3b
 8003310:	d904      	bls.n	800331c <HAL_RTC_SetTime+0x90>
 8003312:	f240 21ef 	movw	r1, #751	; 0x2ef
 8003316:	484f      	ldr	r0, [pc, #316]	; (8003454 <HAL_RTC_SetTime+0x1c8>)
 8003318:	f7fd fb75 	bl	8000a06 <assert_failed>
 800331c:	78a3      	ldrb	r3, [r4, #2]
 800331e:	2b3b      	cmp	r3, #59	; 0x3b
 8003320:	d904      	bls.n	800332c <HAL_RTC_SetTime+0xa0>
 8003322:	f44f 713c 	mov.w	r1, #752	; 0x2f0
 8003326:	484b      	ldr	r0, [pc, #300]	; (8003454 <HAL_RTC_SetTime+0x1c8>)
 8003328:	f7fd fb6d 	bl	8000a06 <assert_failed>
 800332c:	7820      	ldrb	r0, [r4, #0]
 800332e:	f7ff ff99 	bl	8003264 <RTC_ByteToBcd2>
 8003332:	4602      	mov	r2, r0
 8003334:	7860      	ldrb	r0, [r4, #1]
 8003336:	f7ff ff95 	bl	8003264 <RTC_ByteToBcd2>
 800333a:	4605      	mov	r5, r0
 800333c:	78a0      	ldrb	r0, [r4, #2]
 800333e:	f7ff ff91 	bl	8003264 <RTC_ByteToBcd2>
 8003342:	78e3      	ldrb	r3, [r4, #3]
 8003344:	ea40 4003 	orr.w	r0, r0, r3, lsl #16
 8003348:	ea40 4002 	orr.w	r0, r0, r2, lsl #16
 800334c:	ea40 2505 	orr.w	r5, r0, r5, lsl #8
 8003350:	6833      	ldr	r3, [r6, #0]
 8003352:	22ca      	movs	r2, #202	; 0xca
 8003354:	625a      	str	r2, [r3, #36]	; 0x24
 8003356:	2253      	movs	r2, #83	; 0x53
 8003358:	625a      	str	r2, [r3, #36]	; 0x24
 800335a:	4630      	mov	r0, r6
 800335c:	f7ff fee2 	bl	8003124 <RTC_EnterInitMode>
 8003360:	6833      	ldr	r3, [r6, #0]
 8003362:	4607      	mov	r7, r0
 8003364:	2800      	cmp	r0, #0
 8003366:	d04b      	beq.n	8003400 <HAL_RTC_SetTime+0x174>
 8003368:	22ff      	movs	r2, #255	; 0xff
 800336a:	625a      	str	r2, [r3, #36]	; 0x24
 800336c:	2304      	movs	r3, #4
 800336e:	7773      	strb	r3, [r6, #29]
 8003370:	2300      	movs	r3, #0
 8003372:	7733      	strb	r3, [r6, #28]
 8003374:	2701      	movs	r7, #1
 8003376:	4638      	mov	r0, r7
 8003378:	bdf8      	pop	{r3, r4, r5, r6, r7, pc}
 800337a:	2817      	cmp	r0, #23
 800337c:	70e5      	strb	r5, [r4, #3]
 800337e:	d9c5      	bls.n	800330c <HAL_RTC_SetTime+0x80>
 8003380:	f240 21ed 	movw	r1, #749	; 0x2ed
 8003384:	e7bf      	b.n	8003306 <HAL_RTC_SetTime+0x7a>
 8003386:	689a      	ldr	r2, [r3, #8]
 8003388:	f7ff ff77 	bl	800327a <RTC_Bcd2ToByte>
 800338c:	f012 0240 	ands.w	r2, r2, #64	; 0x40
 8003390:	d030      	beq.n	80033f4 <HAL_RTC_SetTime+0x168>
 8003392:	3801      	subs	r0, #1
 8003394:	b2c0      	uxtb	r0, r0
 8003396:	280b      	cmp	r0, #11
 8003398:	d904      	bls.n	80033a4 <HAL_RTC_SetTime+0x118>
 800339a:	f240 21fb 	movw	r1, #763	; 0x2fb
 800339e:	482d      	ldr	r0, [pc, #180]	; (8003454 <HAL_RTC_SetTime+0x1c8>)
 80033a0:	f7fd fb31 	bl	8000a06 <assert_failed>
 80033a4:	78e3      	ldrb	r3, [r4, #3]
 80033a6:	f013 0fbf 	tst.w	r3, #191	; 0xbf
 80033aa:	d004      	beq.n	80033b6 <HAL_RTC_SetTime+0x12a>
 80033ac:	f44f 713f 	mov.w	r1, #764	; 0x2fc
 80033b0:	4828      	ldr	r0, [pc, #160]	; (8003454 <HAL_RTC_SetTime+0x1c8>)
 80033b2:	f7fd fb28 	bl	8000a06 <assert_failed>
 80033b6:	7860      	ldrb	r0, [r4, #1]
 80033b8:	f7ff ff5f 	bl	800327a <RTC_Bcd2ToByte>
 80033bc:	283b      	cmp	r0, #59	; 0x3b
 80033be:	d904      	bls.n	80033ca <HAL_RTC_SetTime+0x13e>
 80033c0:	f240 3103 	movw	r1, #771	; 0x303
 80033c4:	4823      	ldr	r0, [pc, #140]	; (8003454 <HAL_RTC_SetTime+0x1c8>)
 80033c6:	f7fd fb1e 	bl	8000a06 <assert_failed>
 80033ca:	78a0      	ldrb	r0, [r4, #2]
 80033cc:	f7ff ff55 	bl	800327a <RTC_Bcd2ToByte>
 80033d0:	283b      	cmp	r0, #59	; 0x3b
 80033d2:	d904      	bls.n	80033de <HAL_RTC_SetTime+0x152>
 80033d4:	f44f 7141 	mov.w	r1, #772	; 0x304
 80033d8:	481e      	ldr	r0, [pc, #120]	; (8003454 <HAL_RTC_SetTime+0x1c8>)
 80033da:	f7fd fb14 	bl	8000a06 <assert_failed>
 80033de:	7860      	ldrb	r0, [r4, #1]
 80033e0:	7825      	ldrb	r5, [r4, #0]
 80033e2:	0200      	lsls	r0, r0, #8
 80033e4:	ea40 4005 	orr.w	r0, r0, r5, lsl #16
 80033e8:	78a5      	ldrb	r5, [r4, #2]
 80033ea:	4328      	orrs	r0, r5
 80033ec:	78e5      	ldrb	r5, [r4, #3]
 80033ee:	ea40 4505 	orr.w	r5, r0, r5, lsl #16
 80033f2:	e7ad      	b.n	8003350 <HAL_RTC_SetTime+0xc4>
 80033f4:	2817      	cmp	r0, #23
 80033f6:	70e2      	strb	r2, [r4, #3]
 80033f8:	d9dd      	bls.n	80033b6 <HAL_RTC_SetTime+0x12a>
 80033fa:	f240 3101 	movw	r1, #769	; 0x301
 80033fe:	e7d7      	b.n	80033b0 <HAL_RTC_SetTime+0x124>
 8003400:	f005 357f 	and.w	r5, r5, #2139062143	; 0x7f7f7f7f
 8003404:	f025 45fe 	bic.w	r5, r5, #2130706432	; 0x7f000000
 8003408:	601d      	str	r5, [r3, #0]
 800340a:	689a      	ldr	r2, [r3, #8]
 800340c:	68e1      	ldr	r1, [r4, #12]
 800340e:	f422 2280 	bic.w	r2, r2, #262144	; 0x40000
 8003412:	609a      	str	r2, [r3, #8]
 8003414:	689a      	ldr	r2, [r3, #8]
 8003416:	430a      	orrs	r2, r1
 8003418:	6921      	ldr	r1, [r4, #16]
 800341a:	430a      	orrs	r2, r1
 800341c:	609a      	str	r2, [r3, #8]
 800341e:	68da      	ldr	r2, [r3, #12]
 8003420:	f022 0280 	bic.w	r2, r2, #128	; 0x80
 8003424:	60da      	str	r2, [r3, #12]
 8003426:	689b      	ldr	r3, [r3, #8]
 8003428:	069b      	lsls	r3, r3, #26
 800342a:	d40a      	bmi.n	8003442 <HAL_RTC_SetTime+0x1b6>
 800342c:	4630      	mov	r0, r6
 800342e:	f7ff fe61 	bl	80030f4 <HAL_RTC_WaitForSynchro>
 8003432:	b130      	cbz	r0, 8003442 <HAL_RTC_SetTime+0x1b6>
 8003434:	6833      	ldr	r3, [r6, #0]
 8003436:	22ff      	movs	r2, #255	; 0xff
 8003438:	625a      	str	r2, [r3, #36]	; 0x24
 800343a:	2304      	movs	r3, #4
 800343c:	7773      	strb	r3, [r6, #29]
 800343e:	7737      	strb	r7, [r6, #28]
 8003440:	e798      	b.n	8003374 <HAL_RTC_SetTime+0xe8>
 8003442:	6833      	ldr	r3, [r6, #0]
 8003444:	22ff      	movs	r2, #255	; 0xff
 8003446:	625a      	str	r2, [r3, #36]	; 0x24
 8003448:	2301      	movs	r3, #1
 800344a:	7773      	strb	r3, [r6, #29]
 800344c:	2300      	movs	r3, #0
 800344e:	7733      	strb	r3, [r6, #28]
 8003450:	e791      	b.n	8003376 <HAL_RTC_SetTime+0xea>
 8003452:	bf00      	nop
 8003454:	08003aa3 	.word	0x08003aa3

08003458 <HAL_RTC_GetTime>:
 8003458:	2a01      	cmp	r2, #1
 800345a:	b570      	push	{r4, r5, r6, lr}
 800345c:	4605      	mov	r5, r0
 800345e:	460c      	mov	r4, r1
 8003460:	4616      	mov	r6, r2
 8003462:	d904      	bls.n	800346e <HAL_RTC_GetTime+0x16>
 8003464:	f240 315d 	movw	r1, #861	; 0x35d
 8003468:	4814      	ldr	r0, [pc, #80]	; (80034bc <HAL_RTC_GetTime+0x64>)
 800346a:	f7fd facc 	bl	8000a06 <assert_failed>
 800346e:	682b      	ldr	r3, [r5, #0]
 8003470:	6a9a      	ldr	r2, [r3, #40]	; 0x28
 8003472:	6919      	ldr	r1, [r3, #16]
 8003474:	681b      	ldr	r3, [r3, #0]
 8003476:	6062      	str	r2, [r4, #4]
 8003478:	f003 337f 	and.w	r3, r3, #2139062143	; 0x7f7f7f7f
 800347c:	f023 43fe 	bic.w	r3, r3, #2130706432	; 0x7f000000
 8003480:	f3c1 010e 	ubfx	r1, r1, #0, #15
 8003484:	0c1d      	lsrs	r5, r3, #16
 8003486:	f005 003f 	and.w	r0, r5, #63	; 0x3f
 800348a:	60a1      	str	r1, [r4, #8]
 800348c:	f3c3 2206 	ubfx	r2, r3, #8, #7
 8003490:	b2d9      	uxtb	r1, r3
 8003492:	f005 0540 	and.w	r5, r5, #64	; 0x40
 8003496:	7020      	strb	r0, [r4, #0]
 8003498:	7062      	strb	r2, [r4, #1]
 800349a:	70a1      	strb	r1, [r4, #2]
 800349c:	70e5      	strb	r5, [r4, #3]
 800349e:	b956      	cbnz	r6, 80034b6 <HAL_RTC_GetTime+0x5e>
 80034a0:	f7ff feeb 	bl	800327a <RTC_Bcd2ToByte>
 80034a4:	7020      	strb	r0, [r4, #0]
 80034a6:	4610      	mov	r0, r2
 80034a8:	f7ff fee7 	bl	800327a <RTC_Bcd2ToByte>
 80034ac:	7060      	strb	r0, [r4, #1]
 80034ae:	4608      	mov	r0, r1
 80034b0:	f7ff fee3 	bl	800327a <RTC_Bcd2ToByte>
 80034b4:	70a0      	strb	r0, [r4, #2]
 80034b6:	2000      	movs	r0, #0
 80034b8:	bd70      	pop	{r4, r5, r6, pc}
 80034ba:	bf00      	nop
 80034bc:	08003aa3 	.word	0x08003aa3

080034c0 <HAL_RTC_SetDate>:
 80034c0:	2a01      	cmp	r2, #1
 80034c2:	b570      	push	{r4, r5, r6, lr}
 80034c4:	4605      	mov	r5, r0
 80034c6:	460e      	mov	r6, r1
 80034c8:	4614      	mov	r4, r2
 80034ca:	d904      	bls.n	80034d6 <HAL_RTC_SetDate+0x16>
 80034cc:	f240 318a 	movw	r1, #906	; 0x38a
 80034d0:	4856      	ldr	r0, [pc, #344]	; (800362c <HAL_RTC_SetDate+0x16c>)
 80034d2:	f7fd fa98 	bl	8000a06 <assert_failed>
 80034d6:	7f2b      	ldrb	r3, [r5, #28]
 80034d8:	2b01      	cmp	r3, #1
 80034da:	f04f 0302 	mov.w	r3, #2
 80034de:	f000 80a2 	beq.w	8003626 <HAL_RTC_SetDate+0x166>
 80034e2:	2201      	movs	r2, #1
 80034e4:	772a      	strb	r2, [r5, #28]
 80034e6:	776b      	strb	r3, [r5, #29]
 80034e8:	b934      	cbnz	r4, 80034f8 <HAL_RTC_SetDate+0x38>
 80034ea:	7873      	ldrb	r3, [r6, #1]
 80034ec:	06da      	lsls	r2, r3, #27
 80034ee:	bf42      	ittt	mi
 80034f0:	f023 0310 	bicmi.w	r3, r3, #16
 80034f4:	330a      	addmi	r3, #10
 80034f6:	7073      	strbmi	r3, [r6, #1]
 80034f8:	7833      	ldrb	r3, [r6, #0]
 80034fa:	3b01      	subs	r3, #1
 80034fc:	2b06      	cmp	r3, #6
 80034fe:	d904      	bls.n	800350a <HAL_RTC_SetDate+0x4a>
 8003500:	f240 3196 	movw	r1, #918	; 0x396
 8003504:	4849      	ldr	r0, [pc, #292]	; (800362c <HAL_RTC_SetDate+0x16c>)
 8003506:	f7fd fa7e 	bl	8000a06 <assert_failed>
 800350a:	78f0      	ldrb	r0, [r6, #3]
 800350c:	2c00      	cmp	r4, #0
 800350e:	d13f      	bne.n	8003590 <HAL_RTC_SetDate+0xd0>
 8003510:	2863      	cmp	r0, #99	; 0x63
 8003512:	d904      	bls.n	800351e <HAL_RTC_SetDate+0x5e>
 8003514:	f240 319a 	movw	r1, #922	; 0x39a
 8003518:	4844      	ldr	r0, [pc, #272]	; (800362c <HAL_RTC_SetDate+0x16c>)
 800351a:	f7fd fa74 	bl	8000a06 <assert_failed>
 800351e:	7873      	ldrb	r3, [r6, #1]
 8003520:	3b01      	subs	r3, #1
 8003522:	2b0b      	cmp	r3, #11
 8003524:	d904      	bls.n	8003530 <HAL_RTC_SetDate+0x70>
 8003526:	f240 319b 	movw	r1, #923	; 0x39b
 800352a:	4840      	ldr	r0, [pc, #256]	; (800362c <HAL_RTC_SetDate+0x16c>)
 800352c:	f7fd fa6b 	bl	8000a06 <assert_failed>
 8003530:	78b3      	ldrb	r3, [r6, #2]
 8003532:	3b01      	subs	r3, #1
 8003534:	2b1e      	cmp	r3, #30
 8003536:	d904      	bls.n	8003542 <HAL_RTC_SetDate+0x82>
 8003538:	f44f 7167 	mov.w	r1, #924	; 0x39c
 800353c:	483b      	ldr	r0, [pc, #236]	; (800362c <HAL_RTC_SetDate+0x16c>)
 800353e:	f7fd fa62 	bl	8000a06 <assert_failed>
 8003542:	78f0      	ldrb	r0, [r6, #3]
 8003544:	f7ff fe8e 	bl	8003264 <RTC_ByteToBcd2>
 8003548:	4602      	mov	r2, r0
 800354a:	7870      	ldrb	r0, [r6, #1]
 800354c:	f7ff fe8a 	bl	8003264 <RTC_ByteToBcd2>
 8003550:	4604      	mov	r4, r0
 8003552:	78b0      	ldrb	r0, [r6, #2]
 8003554:	f7ff fe86 	bl	8003264 <RTC_ByteToBcd2>
 8003558:	7833      	ldrb	r3, [r6, #0]
 800355a:	ea40 3043 	orr.w	r0, r0, r3, lsl #13
 800355e:	ea40 4002 	orr.w	r0, r0, r2, lsl #16
 8003562:	ea40 2404 	orr.w	r4, r0, r4, lsl #8
 8003566:	682b      	ldr	r3, [r5, #0]
 8003568:	22ca      	movs	r2, #202	; 0xca
 800356a:	625a      	str	r2, [r3, #36]	; 0x24
 800356c:	2253      	movs	r2, #83	; 0x53
 800356e:	625a      	str	r2, [r3, #36]	; 0x24
 8003570:	4628      	mov	r0, r5
 8003572:	f7ff fdd7 	bl	8003124 <RTC_EnterInitMode>
 8003576:	682b      	ldr	r3, [r5, #0]
 8003578:	4606      	mov	r6, r0
 800357a:	2800      	cmp	r0, #0
 800357c:	d034      	beq.n	80035e8 <HAL_RTC_SetDate+0x128>
 800357e:	22ff      	movs	r2, #255	; 0xff
 8003580:	625a      	str	r2, [r3, #36]	; 0x24
 8003582:	2304      	movs	r3, #4
 8003584:	776b      	strb	r3, [r5, #29]
 8003586:	2300      	movs	r3, #0
 8003588:	772b      	strb	r3, [r5, #28]
 800358a:	2601      	movs	r6, #1
 800358c:	4630      	mov	r0, r6
 800358e:	bd70      	pop	{r4, r5, r6, pc}
 8003590:	f7ff fe73 	bl	800327a <RTC_Bcd2ToByte>
 8003594:	2863      	cmp	r0, #99	; 0x63
 8003596:	d904      	bls.n	80035a2 <HAL_RTC_SetDate+0xe2>
 8003598:	f240 31a5 	movw	r1, #933	; 0x3a5
 800359c:	4823      	ldr	r0, [pc, #140]	; (800362c <HAL_RTC_SetDate+0x16c>)
 800359e:	f7fd fa32 	bl	8000a06 <assert_failed>
 80035a2:	7870      	ldrb	r0, [r6, #1]
 80035a4:	f7ff fe69 	bl	800327a <RTC_Bcd2ToByte>
 80035a8:	3801      	subs	r0, #1
 80035aa:	b2c0      	uxtb	r0, r0
 80035ac:	280b      	cmp	r0, #11
 80035ae:	d904      	bls.n	80035ba <HAL_RTC_SetDate+0xfa>
 80035b0:	f240 31a6 	movw	r1, #934	; 0x3a6
 80035b4:	481d      	ldr	r0, [pc, #116]	; (800362c <HAL_RTC_SetDate+0x16c>)
 80035b6:	f7fd fa26 	bl	8000a06 <assert_failed>
 80035ba:	78b0      	ldrb	r0, [r6, #2]
 80035bc:	f7ff fe5d 	bl	800327a <RTC_Bcd2ToByte>
 80035c0:	3801      	subs	r0, #1
 80035c2:	b2c0      	uxtb	r0, r0
 80035c4:	281e      	cmp	r0, #30
 80035c6:	d904      	bls.n	80035d2 <HAL_RTC_SetDate+0x112>
 80035c8:	f240 31a7 	movw	r1, #935	; 0x3a7
 80035cc:	4817      	ldr	r0, [pc, #92]	; (800362c <HAL_RTC_SetDate+0x16c>)
 80035ce:	f7fd fa1a 	bl	8000a06 <assert_failed>
 80035d2:	7870      	ldrb	r0, [r6, #1]
 80035d4:	78f4      	ldrb	r4, [r6, #3]
 80035d6:	0200      	lsls	r0, r0, #8
 80035d8:	ea40 4004 	orr.w	r0, r0, r4, lsl #16
 80035dc:	78b4      	ldrb	r4, [r6, #2]
 80035de:	4320      	orrs	r0, r4
 80035e0:	7834      	ldrb	r4, [r6, #0]
 80035e2:	ea40 3444 	orr.w	r4, r0, r4, lsl #13
 80035e6:	e7be      	b.n	8003566 <HAL_RTC_SetDate+0xa6>
 80035e8:	f024 447f 	bic.w	r4, r4, #4278190080	; 0xff000000
 80035ec:	f024 04c0 	bic.w	r4, r4, #192	; 0xc0
 80035f0:	605c      	str	r4, [r3, #4]
 80035f2:	68da      	ldr	r2, [r3, #12]
 80035f4:	f022 0280 	bic.w	r2, r2, #128	; 0x80
 80035f8:	60da      	str	r2, [r3, #12]
 80035fa:	689b      	ldr	r3, [r3, #8]
 80035fc:	069b      	lsls	r3, r3, #26
 80035fe:	d40a      	bmi.n	8003616 <HAL_RTC_SetDate+0x156>
 8003600:	4628      	mov	r0, r5
 8003602:	f7ff fd77 	bl	80030f4 <HAL_RTC_WaitForSynchro>
 8003606:	b130      	cbz	r0, 8003616 <HAL_RTC_SetDate+0x156>
 8003608:	682b      	ldr	r3, [r5, #0]
 800360a:	22ff      	movs	r2, #255	; 0xff
 800360c:	625a      	str	r2, [r3, #36]	; 0x24
 800360e:	2304      	movs	r3, #4
 8003610:	776b      	strb	r3, [r5, #29]
 8003612:	772e      	strb	r6, [r5, #28]
 8003614:	e7b9      	b.n	800358a <HAL_RTC_SetDate+0xca>
 8003616:	682b      	ldr	r3, [r5, #0]
 8003618:	22ff      	movs	r2, #255	; 0xff
 800361a:	625a      	str	r2, [r3, #36]	; 0x24
 800361c:	2301      	movs	r3, #1
 800361e:	776b      	strb	r3, [r5, #29]
 8003620:	2300      	movs	r3, #0
 8003622:	772b      	strb	r3, [r5, #28]
 8003624:	e7b2      	b.n	800358c <HAL_RTC_SetDate+0xcc>
 8003626:	461e      	mov	r6, r3
 8003628:	e7b0      	b.n	800358c <HAL_RTC_SetDate+0xcc>
 800362a:	bf00      	nop
 800362c:	08003aa3 	.word	0x08003aa3

08003630 <HAL_RTC_GetDate>:
 8003630:	2a01      	cmp	r2, #1
 8003632:	b570      	push	{r4, r5, r6, lr}
 8003634:	4605      	mov	r5, r0
 8003636:	460c      	mov	r4, r1
 8003638:	4616      	mov	r6, r2
 800363a:	d904      	bls.n	8003646 <HAL_RTC_GetDate+0x16>
 800363c:	f44f 717e 	mov.w	r1, #1016	; 0x3f8
 8003640:	4810      	ldr	r0, [pc, #64]	; (8003684 <HAL_RTC_GetDate+0x54>)
 8003642:	f7fd f9e0 	bl	8000a06 <assert_failed>
 8003646:	682b      	ldr	r3, [r5, #0]
 8003648:	685b      	ldr	r3, [r3, #4]
 800364a:	f023 437f 	bic.w	r3, r3, #4278190080	; 0xff000000
 800364e:	f023 03c0 	bic.w	r3, r3, #192	; 0xc0
 8003652:	0c18      	lsrs	r0, r3, #16
 8003654:	f3c3 2504 	ubfx	r5, r3, #8, #5
 8003658:	b2d9      	uxtb	r1, r3
 800365a:	f3c3 3342 	ubfx	r3, r3, #13, #3
 800365e:	70e0      	strb	r0, [r4, #3]
 8003660:	7065      	strb	r5, [r4, #1]
 8003662:	70a1      	strb	r1, [r4, #2]
 8003664:	7023      	strb	r3, [r4, #0]
 8003666:	b956      	cbnz	r6, 800367e <HAL_RTC_GetDate+0x4e>
 8003668:	f7ff fe07 	bl	800327a <RTC_Bcd2ToByte>
 800366c:	70e0      	strb	r0, [r4, #3]
 800366e:	4628      	mov	r0, r5
 8003670:	f7ff fe03 	bl	800327a <RTC_Bcd2ToByte>
 8003674:	7060      	strb	r0, [r4, #1]
 8003676:	4608      	mov	r0, r1
 8003678:	f7ff fdff 	bl	800327a <RTC_Bcd2ToByte>
 800367c:	70a0      	strb	r0, [r4, #2]
 800367e:	2000      	movs	r0, #0
 8003680:	bd70      	pop	{r4, r5, r6, pc}
 8003682:	bf00      	nop
 8003684:	08003aa3 	.word	0x08003aa3

08003688 <UART_SetConfig>:
 8003688:	6842      	ldr	r2, [r0, #4]
 800368a:	4b49      	ldr	r3, [pc, #292]	; (80037b0 <UART_SetConfig+0x128>)
 800368c:	429a      	cmp	r2, r3
 800368e:	b570      	push	{r4, r5, r6, lr}
 8003690:	4604      	mov	r4, r0
 8003692:	d904      	bls.n	800369e <UART_SetConfig+0x16>
 8003694:	f640 31fb 	movw	r1, #3067	; 0xbfb
 8003698:	4846      	ldr	r0, [pc, #280]	; (80037b4 <UART_SetConfig+0x12c>)
 800369a:	f7fd f9b4 	bl	8000a06 <assert_failed>
 800369e:	68e3      	ldr	r3, [r4, #12]
 80036a0:	f433 5300 	bics.w	r3, r3, #8192	; 0x2000
 80036a4:	d004      	beq.n	80036b0 <UART_SetConfig+0x28>
 80036a6:	f640 31fc 	movw	r1, #3068	; 0xbfc
 80036aa:	4842      	ldr	r0, [pc, #264]	; (80037b4 <UART_SetConfig+0x12c>)
 80036ac:	f7fd f9ab 	bl	8000a06 <assert_failed>
 80036b0:	6923      	ldr	r3, [r4, #16]
 80036b2:	f433 6280 	bics.w	r2, r3, #1024	; 0x400
 80036b6:	d007      	beq.n	80036c8 <UART_SetConfig+0x40>
 80036b8:	f5b3 6fc0 	cmp.w	r3, #1536	; 0x600
 80036bc:	d004      	beq.n	80036c8 <UART_SetConfig+0x40>
 80036be:	f640 31fd 	movw	r1, #3069	; 0xbfd
 80036c2:	483c      	ldr	r0, [pc, #240]	; (80037b4 <UART_SetConfig+0x12c>)
 80036c4:	f7fd f99f 	bl	8000a06 <assert_failed>
 80036c8:	6963      	ldr	r3, [r4, #20]
 80036ca:	f64f 72f3 	movw	r2, #65523	; 0xfff3
 80036ce:	4213      	tst	r3, r2
 80036d0:	d100      	bne.n	80036d4 <UART_SetConfig+0x4c>
 80036d2:	b923      	cbnz	r3, 80036de <UART_SetConfig+0x56>
 80036d4:	f640 31fe 	movw	r1, #3070	; 0xbfe
 80036d8:	4836      	ldr	r0, [pc, #216]	; (80037b4 <UART_SetConfig+0x12c>)
 80036da:	f7fd f994 	bl	8000a06 <assert_failed>
 80036de:	6823      	ldr	r3, [r4, #0]
 80036e0:	68e1      	ldr	r1, [r4, #12]
 80036e2:	691a      	ldr	r2, [r3, #16]
 80036e4:	6925      	ldr	r5, [r4, #16]
 80036e6:	69e0      	ldr	r0, [r4, #28]
 80036e8:	f422 5240 	bic.w	r2, r2, #12288	; 0x3000
 80036ec:	430a      	orrs	r2, r1
 80036ee:	611a      	str	r2, [r3, #16]
 80036f0:	68a2      	ldr	r2, [r4, #8]
 80036f2:	68d9      	ldr	r1, [r3, #12]
 80036f4:	432a      	orrs	r2, r5
 80036f6:	6965      	ldr	r5, [r4, #20]
 80036f8:	f421 4116 	bic.w	r1, r1, #38400	; 0x9600
 80036fc:	432a      	orrs	r2, r5
 80036fe:	f021 010c 	bic.w	r1, r1, #12
 8003702:	4302      	orrs	r2, r0
 8003704:	430a      	orrs	r2, r1
 8003706:	60da      	str	r2, [r3, #12]
 8003708:	695a      	ldr	r2, [r3, #20]
 800370a:	69a1      	ldr	r1, [r4, #24]
 800370c:	f422 7240 	bic.w	r2, r2, #768	; 0x300
 8003710:	430a      	orrs	r2, r1
 8003712:	f5b0 4f00 	cmp.w	r0, #32768	; 0x8000
 8003716:	615a      	str	r2, [r3, #20]
 8003718:	4a27      	ldr	r2, [pc, #156]	; (80037b8 <UART_SetConfig+0x130>)
 800371a:	d129      	bne.n	8003770 <UART_SetConfig+0xe8>
 800371c:	4293      	cmp	r3, r2
 800371e:	d003      	beq.n	8003728 <UART_SetConfig+0xa0>
 8003720:	f502 6280 	add.w	r2, r2, #1024	; 0x400
 8003724:	4293      	cmp	r3, r2
 8003726:	d120      	bne.n	800376a <UART_SetConfig+0xe2>
 8003728:	f7ff fbd4 	bl	8002ed4 <HAL_RCC_GetPCLK2Freq>
 800372c:	6862      	ldr	r2, [r4, #4]
 800372e:	2600      	movs	r6, #0
 8003730:	1892      	adds	r2, r2, r2
 8003732:	f04f 0119 	mov.w	r1, #25
 8003736:	eb46 0306 	adc.w	r3, r6, r6
 800373a:	fba0 0101 	umull	r0, r1, r0, r1
 800373e:	f7fc fd4b 	bl	80001d8 <__aeabi_uldivmod>
 8003742:	2164      	movs	r1, #100	; 0x64
 8003744:	fbb0 f5f1 	udiv	r5, r0, r1
 8003748:	fb01 0315 	mls	r3, r1, r5, r0
 800374c:	00db      	lsls	r3, r3, #3
 800374e:	3332      	adds	r3, #50	; 0x32
 8003750:	fbb3 f3f1 	udiv	r3, r3, r1
 8003754:	f003 0207 	and.w	r2, r3, #7
 8003758:	005b      	lsls	r3, r3, #1
 800375a:	6821      	ldr	r1, [r4, #0]
 800375c:	eb02 1205 	add.w	r2, r2, r5, lsl #4
 8003760:	f403 73f8 	and.w	r3, r3, #496	; 0x1f0
 8003764:	4413      	add	r3, r2
 8003766:	608b      	str	r3, [r1, #8]
 8003768:	bd70      	pop	{r4, r5, r6, pc}
 800376a:	f7ff fba3 	bl	8002eb4 <HAL_RCC_GetPCLK1Freq>
 800376e:	e7dd      	b.n	800372c <UART_SetConfig+0xa4>
 8003770:	4293      	cmp	r3, r2
 8003772:	d002      	beq.n	800377a <UART_SetConfig+0xf2>
 8003774:	4a11      	ldr	r2, [pc, #68]	; (80037bc <UART_SetConfig+0x134>)
 8003776:	4293      	cmp	r3, r2
 8003778:	d117      	bne.n	80037aa <UART_SetConfig+0x122>
 800377a:	f7ff fbab 	bl	8002ed4 <HAL_RCC_GetPCLK2Freq>
 800377e:	6863      	ldr	r3, [r4, #4]
 8003780:	2119      	movs	r1, #25
 8003782:	009a      	lsls	r2, r3, #2
 8003784:	fba0 0101 	umull	r0, r1, r0, r1
 8003788:	0f9b      	lsrs	r3, r3, #30
 800378a:	f7fc fd25 	bl	80001d8 <__aeabi_uldivmod>
 800378e:	2264      	movs	r2, #100	; 0x64
 8003790:	fbb0 f1f2 	udiv	r1, r0, r2
 8003794:	fb02 0311 	mls	r3, r2, r1, r0
 8003798:	6824      	ldr	r4, [r4, #0]
 800379a:	011b      	lsls	r3, r3, #4
 800379c:	3332      	adds	r3, #50	; 0x32
 800379e:	fbb3 f3f2 	udiv	r3, r3, r2
 80037a2:	eb03 1301 	add.w	r3, r3, r1, lsl #4
 80037a6:	60a3      	str	r3, [r4, #8]
 80037a8:	e7de      	b.n	8003768 <UART_SetConfig+0xe0>
 80037aa:	f7ff fb83 	bl	8002eb4 <HAL_RCC_GetPCLK1Freq>
 80037ae:	e7e6      	b.n	800377e <UART_SetConfig+0xf6>
 80037b0:	00a037a0 	.word	0x00a037a0
 80037b4:	08003adb 	.word	0x08003adb
 80037b8:	40011000 	.word	0x40011000
 80037bc:	40011400 	.word	0x40011400

080037c0 <HAL_UART_Init>:
 80037c0:	b510      	push	{r4, lr}
 80037c2:	4604      	mov	r4, r0
 80037c4:	2800      	cmp	r0, #0
 80037c6:	d064      	beq.n	8003892 <HAL_UART_Init+0xd2>
 80037c8:	6981      	ldr	r1, [r0, #24]
 80037ca:	6803      	ldr	r3, [r0, #0]
 80037cc:	4a32      	ldr	r2, [pc, #200]	; (8003898 <HAL_UART_Init+0xd8>)
 80037ce:	2900      	cmp	r1, #0
 80037d0:	d053      	beq.n	800387a <HAL_UART_Init+0xba>
 80037d2:	4293      	cmp	r3, r2
 80037d4:	d00c      	beq.n	80037f0 <HAL_UART_Init+0x30>
 80037d6:	f5a2 424c 	sub.w	r2, r2, #52224	; 0xcc00
 80037da:	4293      	cmp	r3, r2
 80037dc:	d008      	beq.n	80037f0 <HAL_UART_Init+0x30>
 80037de:	f502 4250 	add.w	r2, r2, #53248	; 0xd000
 80037e2:	4293      	cmp	r3, r2
 80037e4:	d004      	beq.n	80037f0 <HAL_UART_Init+0x30>
 80037e6:	f240 114b 	movw	r1, #331	; 0x14b
 80037ea:	482c      	ldr	r0, [pc, #176]	; (800389c <HAL_UART_Init+0xdc>)
 80037ec:	f7fd f90b 	bl	8000a06 <assert_failed>
 80037f0:	69a3      	ldr	r3, [r4, #24]
 80037f2:	f433 7340 	bics.w	r3, r3, #768	; 0x300
 80037f6:	d004      	beq.n	8003802 <HAL_UART_Init+0x42>
 80037f8:	f44f 71a6 	mov.w	r1, #332	; 0x14c
 80037fc:	4827      	ldr	r0, [pc, #156]	; (800389c <HAL_UART_Init+0xdc>)
 80037fe:	f7fd f902 	bl	8000a06 <assert_failed>
 8003802:	68a3      	ldr	r3, [r4, #8]
 8003804:	f433 5380 	bics.w	r3, r3, #4096	; 0x1000
 8003808:	d004      	beq.n	8003814 <HAL_UART_Init+0x54>
 800380a:	f44f 71a9 	mov.w	r1, #338	; 0x152
 800380e:	4823      	ldr	r0, [pc, #140]	; (800389c <HAL_UART_Init+0xdc>)
 8003810:	f7fd f8f9 	bl	8000a06 <assert_failed>
 8003814:	69e3      	ldr	r3, [r4, #28]
 8003816:	f433 4300 	bics.w	r3, r3, #32768	; 0x8000
 800381a:	d004      	beq.n	8003826 <HAL_UART_Init+0x66>
 800381c:	f240 1153 	movw	r1, #339	; 0x153
 8003820:	481e      	ldr	r0, [pc, #120]	; (800389c <HAL_UART_Init+0xdc>)
 8003822:	f7fd f8f0 	bl	8000a06 <assert_failed>
 8003826:	f894 3039 	ldrb.w	r3, [r4, #57]	; 0x39
 800382a:	f003 02ff 	and.w	r2, r3, #255	; 0xff
 800382e:	b923      	cbnz	r3, 800383a <HAL_UART_Init+0x7a>
 8003830:	f884 2038 	strb.w	r2, [r4, #56]	; 0x38
 8003834:	4620      	mov	r0, r4
 8003836:	f7fd f995 	bl	8000b64 <HAL_UART_MspInit>
 800383a:	6822      	ldr	r2, [r4, #0]
 800383c:	2324      	movs	r3, #36	; 0x24
 800383e:	f884 3039 	strb.w	r3, [r4, #57]	; 0x39
 8003842:	68d3      	ldr	r3, [r2, #12]
 8003844:	f423 5300 	bic.w	r3, r3, #8192	; 0x2000
 8003848:	60d3      	str	r3, [r2, #12]
 800384a:	4620      	mov	r0, r4
 800384c:	f7ff ff1c 	bl	8003688 <UART_SetConfig>
 8003850:	6823      	ldr	r3, [r4, #0]
 8003852:	691a      	ldr	r2, [r3, #16]
 8003854:	f422 4290 	bic.w	r2, r2, #18432	; 0x4800
 8003858:	611a      	str	r2, [r3, #16]
 800385a:	695a      	ldr	r2, [r3, #20]
 800385c:	f022 022a 	bic.w	r2, r2, #42	; 0x2a
 8003860:	615a      	str	r2, [r3, #20]
 8003862:	68da      	ldr	r2, [r3, #12]
 8003864:	f442 5200 	orr.w	r2, r2, #8192	; 0x2000
 8003868:	60da      	str	r2, [r3, #12]
 800386a:	2000      	movs	r0, #0
 800386c:	2320      	movs	r3, #32
 800386e:	63e0      	str	r0, [r4, #60]	; 0x3c
 8003870:	f884 3039 	strb.w	r3, [r4, #57]	; 0x39
 8003874:	f884 303a 	strb.w	r3, [r4, #58]	; 0x3a
 8003878:	bd10      	pop	{r4, pc}
 800387a:	4293      	cmp	r3, r2
 800387c:	d0c1      	beq.n	8003802 <HAL_UART_Init+0x42>
 800387e:	4a08      	ldr	r2, [pc, #32]	; (80038a0 <HAL_UART_Init+0xe0>)
 8003880:	4293      	cmp	r3, r2
 8003882:	d0be      	beq.n	8003802 <HAL_UART_Init+0x42>
 8003884:	f502 4250 	add.w	r2, r2, #53248	; 0xd000
 8003888:	4293      	cmp	r3, r2
 800388a:	d0ba      	beq.n	8003802 <HAL_UART_Init+0x42>
 800388c:	f44f 71a8 	mov.w	r1, #336	; 0x150
 8003890:	e7b4      	b.n	80037fc <HAL_UART_Init+0x3c>
 8003892:	2001      	movs	r0, #1
 8003894:	e7f0      	b.n	8003878 <HAL_UART_Init+0xb8>
 8003896:	bf00      	nop
 8003898:	40011000 	.word	0x40011000
 800389c:	08003adb 	.word	0x08003adb
 80038a0:	40004400 	.word	0x40004400

080038a4 <__libc_init_array>:
 80038a4:	b570      	push	{r4, r5, r6, lr}
 80038a6:	4e0d      	ldr	r6, [pc, #52]	; (80038dc <__libc_init_array+0x38>)
 80038a8:	4c0d      	ldr	r4, [pc, #52]	; (80038e0 <__libc_init_array+0x3c>)
 80038aa:	1ba4      	subs	r4, r4, r6
 80038ac:	10a4      	asrs	r4, r4, #2
 80038ae:	2500      	movs	r5, #0
 80038b0:	42a5      	cmp	r5, r4
 80038b2:	d109      	bne.n	80038c8 <__libc_init_array+0x24>
 80038b4:	4e0b      	ldr	r6, [pc, #44]	; (80038e4 <__libc_init_array+0x40>)
 80038b6:	4c0c      	ldr	r4, [pc, #48]	; (80038e8 <__libc_init_array+0x44>)
 80038b8:	f000 f82c 	bl	8003914 <_init>
 80038bc:	1ba4      	subs	r4, r4, r6
 80038be:	10a4      	asrs	r4, r4, #2
 80038c0:	2500      	movs	r5, #0
 80038c2:	42a5      	cmp	r5, r4
 80038c4:	d105      	bne.n	80038d2 <__libc_init_array+0x2e>
 80038c6:	bd70      	pop	{r4, r5, r6, pc}
 80038c8:	f856 3025 	ldr.w	r3, [r6, r5, lsl #2]
 80038cc:	4798      	blx	r3
 80038ce:	3501      	adds	r5, #1
 80038d0:	e7ee      	b.n	80038b0 <__libc_init_array+0xc>
 80038d2:	f856 3025 	ldr.w	r3, [r6, r5, lsl #2]
 80038d6:	4798      	blx	r3
 80038d8:	3501      	adds	r5, #1
 80038da:	e7f2      	b.n	80038c2 <__libc_init_array+0x1e>
 80038dc:	08003b1c 	.word	0x08003b1c
 80038e0:	08003b1c 	.word	0x08003b1c
 80038e4:	08003b1c 	.word	0x08003b1c
 80038e8:	08003b20 	.word	0x08003b20

080038ec <memcpy>:
 80038ec:	b510      	push	{r4, lr}
 80038ee:	1e43      	subs	r3, r0, #1
 80038f0:	440a      	add	r2, r1
 80038f2:	4291      	cmp	r1, r2
 80038f4:	d100      	bne.n	80038f8 <memcpy+0xc>
 80038f6:	bd10      	pop	{r4, pc}
 80038f8:	f811 4b01 	ldrb.w	r4, [r1], #1
 80038fc:	f803 4f01 	strb.w	r4, [r3, #1]!
 8003900:	e7f7      	b.n	80038f2 <memcpy+0x6>

08003902 <memset>:
 8003902:	4402      	add	r2, r0
 8003904:	4603      	mov	r3, r0
 8003906:	4293      	cmp	r3, r2
 8003908:	d100      	bne.n	800390c <memset+0xa>
 800390a:	4770      	bx	lr
 800390c:	f803 1b01 	strb.w	r1, [r3], #1
 8003910:	e7f9      	b.n	8003906 <memset+0x4>
	...

08003914 <_init>:
 8003914:	b5f8      	push	{r3, r4, r5, r6, r7, lr}
 8003916:	bf00      	nop
 8003918:	bcf8      	pop	{r3, r4, r5, r6, r7}
 800391a:	bc08      	pop	{r3}
 800391c:	469e      	mov	lr, r3
 800391e:	4770      	bx	lr

08003920 <_fini>:
 8003920:	b5f8      	push	{r3, r4, r5, r6, r7, lr}
 8003922:	bf00      	nop
 8003924:	bcf8      	pop	{r3, r4, r5, r6, r7}
 8003926:	bc08      	pop	{r3}
 8003928:	469e      	mov	lr, r3
 800392a:	4770      	bx	lr
